

Microchip Technology PIC18 LITE Macro Assembler V1.38 build -256452561 
                                                                                               Sat Feb 27 19:19:47 2021

Microchip Technology Omniscient Code Generator v1.38 (Free mode) build 201607010351
     1                           	processor	18F45K20
     2                           	fnconf	rparam,??,?,0
     3                           	opt	pw 120
     4                           	opt	lm
     5                           	psect	nvCOMRAM,global,class=COMRAM,space=1,delta=1
     6                           	psect	cinit,global,reloc=2,class=CODE,delta=1
     7                           	psect	bssCOMRAM,global,class=COMRAM,space=1,delta=1
     8                           	psect	cstackCOMRAM,global,class=COMRAM,space=1,delta=1
     9                           	psect	text0,global,reloc=2,class=CODE,delta=1
    10                           	psect	text1,global,reloc=2,class=CODE,delta=1
    11                           	psect	text2,global,reloc=2,class=CODE,delta=1
    12                           	psect	text3,global,reloc=2,class=CODE,delta=1
    13                           	psect	text4,global,reloc=2,class=CODE,delta=1
    14                           	psect	text5,global,reloc=2,class=CODE,delta=1
    15                           	psect	text6,global,reloc=2,class=CODE,delta=1
    16                           	psect	text7,global,reloc=2,class=CODE,delta=1
    17                           	psect	text8,global,reloc=2,class=CODE,delta=1
    18                           	psect	text9,global,reloc=2,class=CODE,delta=1
    19                           	psect	text10,global,reloc=2,class=CODE,delta=1
    20                           	psect	text11,global,reloc=2,class=CODE,delta=1
    21                           	psect	text12,global,reloc=2,class=CODE,delta=1
    22                           	psect	text13,global,reloc=2,class=CODE,delta=1
    23                           	psect	text14,global,reloc=2,class=CODE,delta=1
    24                           	psect	text15,global,reloc=2,class=CODE,delta=1
    25                           	psect	text16,global,reloc=2,class=CODE,delta=1
    26                           	psect	intcodelo,global,reloc=2,class=CODE,delta=1
    27                           	psect	intcode,global,reloc=2,class=CODE,delta=1
    28                           	psect	intcode_body,global,reloc=2,class=CODE,delta=1
    29                           	psect	intsave_regs,global,class=BIGRAM,space=1,delta=1
    30                           	psect	rparam,global,class=COMRAM,space=1,delta=1
    31                           	psect	temp,global,ovrld,common,class=COMRAM,space=1,delta=1
    32  0000                     
    33                           	psect	nvCOMRAM
    34  00002F                     __pnvCOMRAM:
    35                           	opt stack 0
    36  00002F                     _anteriorRB4:
    37                           	opt stack 0
    38  00002F                     	ds	2
    39  000031                     _anteriorRB5:
    40                           	opt stack 0
    41  000031                     	ds	2
    42  0000                     _ADRES	set	4035
    43  0000                     _ADCON0bits	set	4034
    44  0000                     _ADCON2bits	set	4032
    45  0000                     _ADRESH	set	4036
    46  0000                     _ADRESL	set	4035
    47  0000                     _ANSELH	set	3967
    48  0000                     _ANSELbits	set	3966
    49  0000                     _CCP1CONbits	set	4029
    50  0000                     _CCP2CONbits	set	4026
    51  0000                     _CCPR1H	set	4031
    52  0000                     _CCPR1L	set	4030
    53  0000                     _CCPR2H	set	4028
    54  0000                     _CCPR2L	set	4027
    55  0000                     _INTCON2bits	set	4081
    56  0000                     _INTCON3bits	set	4080
    57  0000                     _INTCONbits	set	4082
    58  0000                     _IOCBbits	set	3965
    59  0000                     _IPR1bits	set	3999
    60  0000                     _LATBbits	set	3978
    61  0000                     _PIE1bits	set	3997
    62  0000                     _PIR1bits	set	3998
    63  0000                     _PORTBbits	set	3969
    64  0000                     _PORTCbits	set	3970
    65  0000                     _PORTD	set	3971
    66  0000                     _PR2	set	4043
    67  0000                     _RCONbits	set	4048
    68  0000                     _T2CONbits	set	4042
    69  0000                     _TMR2	set	4044
    70  0000                     _TRISAbits	set	3986
    71  0000                     _TRISBbits	set	3987
    72  0000                     _TRISCbits	set	3988
    73  0000                     _TRISD	set	3989
    74                           
    75                           ; #config settings
    76  0000                     
    77                           	psect	cinit
    78  000322                     __pcinit:
    79                           	opt stack 0
    80  000322                     start_initialization:
    81                           	opt stack 0
    82  000322                     __initialization:
    83                           	opt stack 0
    84                           
    85                           ; Clear objects allocated to COMRAM (6 bytes)
    86  000322  6A2E               	clrf	(__pbssCOMRAM+5)& (0+255),c
    87  000324  6A2D               	clrf	(__pbssCOMRAM+4)& (0+255),c
    88  000326  6A2C               	clrf	(__pbssCOMRAM+3)& (0+255),c
    89  000328  6A2B               	clrf	(__pbssCOMRAM+2)& (0+255),c
    90  00032A  6A2A               	clrf	(__pbssCOMRAM+1)& (0+255),c
    91  00032C  6A29               	clrf	__pbssCOMRAM& (0+255),c
    92  00032E                     end_of_initialization:
    93                           	opt stack 0
    94  00032E                     __end_of__initialization:
    95                           	opt stack 0
    96  00032E  9033               	bcf	int$flags,0,c	;clear compiler interrupt flag (level 1)
    97  000330  9233               	bcf	int$flags,1,c	;clear compiler interrupt flag (level 2)
    98  000332  0100               	movlb	0
    99  000334  EF48  F001         	goto	_main	;jump to C main() function
   100                           
   101                           	psect	bssCOMRAM
   102  000029                     __pbssCOMRAM:
   103                           	opt stack 0
   104  000029                     _actual:
   105                           	opt stack 0
   106  000029                     	ds	2
   107  00002B                     _ultimaLectura0:
   108                           	opt stack 0
   109  00002B                     	ds	2
   110  00002D                     _ultimaLectura1:
   111                           	opt stack 0
   112  00002D                     	ds	2
   113                           
   114                           	psect	cstackCOMRAM
   115  000001                     __pcstackCOMRAM:
   116                           	opt stack 0
   117  000001                     ??_interrupcionAlta:
   118  000001                     
   119                           ; 2 bytes @ 0x0
   120  000001                     	ds	14
   121  00000F                     ??_interrupcionBaixa:
   122                           
   123                           ; 1 bytes @ 0xE
   124  00000F                     	ds	21
   125  000024                     ??_main:
   126  000024                     
   127                           ; 1 bytes @ 0x23
   128  000024                     	ds	1
   129  000025                     main@var1:
   130                           	opt stack 0
   131                           
   132                           ; 2 bytes @ 0x24
   133  000025                     	ds	2
   134  000027                     main@var2:
   135                           	opt stack 0
   136                           
   137                           ; 2 bytes @ 0x26
   138  000027                     	ds	2
   139                           
   140 ;;
   141 ;;Main: autosize = 0, tempsize = 1, incstack = 0, save=0
   142 ;;
   143 ;; *************** function _main *****************
   144 ;; Defined at:
   145 ;;		line 61 in file "main.c"
   146 ;; Parameters:    Size  Location     Type
   147 ;;		None
   148 ;; Auto vars:     Size  Location     Type
   149 ;;  var2            2   38[COMRAM] short 
   150 ;;  var1            2   36[COMRAM] short 
   151 ;; Return value:  Size  Location     Type
   152 ;;                  1    wreg      void 
   153 ;; Registers used:
   154 ;;		wreg, status,2, cstack
   155 ;; Tracked objects:
   156 ;;		On entry : 0/0
   157 ;;		On exit  : 0/0
   158 ;;		Unchanged: 0/0
   159 ;; Data sizes:     COMRAM   BANK0   BANK1   BANK2   BANK3   BANK4   BANK5
   160 ;;      Params:         0       0       0       0       0       0       0
   161 ;;      Locals:         4       0       0       0       0       0       0
   162 ;;      Temps:          1       0       0       0       0       0       0
   163 ;;      Totals:         5       0       0       0       0       0       0
   164 ;;Total ram usage:        5 bytes
   165 ;; Hardware stack levels required when called:    4
   166 ;; This function calls:
   167 ;;		_inicializaManipuladorMagnetico
   168 ;; This function is called by:
   169 ;;		Startup code after reset
   170 ;; This function uses a non-reentrant model
   171 ;;
   172                           
   173                           	psect	text0
   174  000290                     __ptext0:
   175                           	opt stack 0
   176  000290                     _main:
   177                           	opt stack 27
   178                           
   179                           ;main.c: 63: short var1;
   180                           ;main.c: 64: short var2;
   181                           ;main.c: 65: inicializaManipuladorMagnetico();
   182                           
   183                           ;incstack = 0
   184  000290  EC26  F001         	call	_inicializaManipuladorMagnetico	;wreg free
   185                           
   186                           ;main.c: 66: anteriorRB4 = PORTBbits.RB4;
   187  000294  A881               	btfss	3969,4,c	;volatile
   188  000296  D003               	goto	u200
   189  000298  6A24               	clrf	??_main& (0+255),c
   190  00029A  2A24               	incf	??_main& (0+255),f,c
   191  00029C  D001               	goto	u208
   192  00029E                     u200:
   193  00029E  6A24               	clrf	??_main& (0+255),c
   194  0002A0                     u208:
   195  0002A0  5024               	movf	??_main,w,c
   196  0002A2  6E2F               	movwf	_anteriorRB4,c
   197  0002A4  6A30               	clrf	_anteriorRB4+1,c
   198                           
   199                           ;main.c: 67: anteriorRB5 = PORTBbits.RB5;
   200  0002A6  AA81               	btfss	3969,5,c	;volatile
   201  0002A8  D003               	goto	u210
   202  0002AA  6A24               	clrf	??_main& (0+255),c
   203  0002AC  2A24               	incf	??_main& (0+255),f,c
   204  0002AE  D001               	goto	u218
   205  0002B0                     u210:
   206  0002B0  6A24               	clrf	??_main& (0+255),c
   207  0002B2                     u218:
   208  0002B2  5024               	movf	??_main,w,c
   209  0002B4  6E31               	movwf	_anteriorRB5,c
   210  0002B6  6A32               	clrf	_anteriorRB5+1,c
   211  0002B8                     l919:
   212                           
   213                           ;main.c: 69: {
   214                           ;main.c: 70: var1=ultimaLectura0;
   215  0002B8  C02B  F025         	movff	_ultimaLectura0,main@var1
   216  0002BC  C02C  F026         	movff	_ultimaLectura0+1,main@var1+1
   217                           
   218                           ;main.c: 71: var2=ultimaLectura1;
   219  0002C0  C02D  F027         	movff	_ultimaLectura1,main@var2
   220  0002C4  C02E  F028         	movff	_ultimaLectura1+1,main@var2+1
   221                           
   222                           ;main.c: 75: __nop();
   223  0002C8  F000               	nop	
   224  0002CA  D7F6               	goto	l919
   225  0002CC                     __end_of_main:
   226                           	opt stack 0
   227                           
   228 ;; *************** function _inicializaManipuladorMagnetico *****************
   229 ;; Defined at:
   230 ;;		line 136 in file "Configuracion.c"
   231 ;; Parameters:    Size  Location     Type
   232 ;;		None
   233 ;; Auto vars:     Size  Location     Type
   234 ;;		None
   235 ;; Return value:  Size  Location     Type
   236 ;;                  2   24[None  ] int 
   237 ;; Registers used:
   238 ;;		wreg, status,2, cstack
   239 ;; Tracked objects:
   240 ;;		On entry : 0/0
   241 ;;		On exit  : 0/0
   242 ;;		Unchanged: 0/0
   243 ;; Data sizes:     COMRAM   BANK0   BANK1   BANK2   BANK3   BANK4   BANK5
   244 ;;      Params:         0       0       0       0       0       0       0
   245 ;;      Locals:         0       0       0       0       0       0       0
   246 ;;      Temps:          0       0       0       0       0       0       0
   247 ;;      Totals:         0       0       0       0       0       0       0
   248 ;;Total ram usage:        0 bytes
   249 ;; Hardware stack levels used:    1
   250 ;; Hardware stack levels required when called:    3
   251 ;; This function calls:
   252 ;;		_inicializaAN0_I
   253 ;;		_inicializaAN1_I
   254 ;;		_inicializaAnalogicas
   255 ;;		_inicializaGlobalRB_I_Int
   256 ;;		_inicializaRB0_I
   257 ;;		_inicializaRB1_I
   258 ;;		_inicializaRB2_I
   259 ;;		_inicializaRB4_5_O
   260 ;;		_inicializaRC0_O
   261 ;;		_inicializaRC1_PWM
   262 ;;		_inicializaRC2_PWM
   263 ;;		_inicializaRC3_O
   264 ;;		_inicializaRC4_O
   265 ;;		_inicializaRC5_O
   266 ;;		_inicializaTimer2_PWM
   267 ;; This function is called by:
   268 ;;		_main
   269 ;; This function uses a non-reentrant model
   270 ;;
   271                           
   272                           	psect	text1
   273  00024C                     __ptext1:
   274                           	opt stack 0
   275  00024C                     _inicializaManipuladorMagnetico:
   276                           	opt stack 27
   277                           
   278                           ;Configuracion.c: 137: inicializaGlobalRB_I_Int();
   279                           
   280                           ;incstack = 0
   281  00024C  ECAF  F001         	call	_inicializaGlobalRB_I_Int	;wreg free
   282                           
   283                           ;Configuracion.c: 138: inicializaRB0_I();
   284  000250  ECBF  F001         	call	_inicializaRB0_I	;wreg free
   285                           
   286                           ;Configuracion.c: 139: inicializaRB1_I();
   287  000254  ECBA  F001         	call	_inicializaRB1_I	;wreg free
   288                           
   289                           ;Configuracion.c: 140: inicializaRB2_I();
   290  000258  ECB5  F001         	call	_inicializaRB2_I	;wreg free
   291                           
   292                           ;Configuracion.c: 141: inicializaRC1_PWM();
   293  00025C  EC85  F001         	call	_inicializaRC1_PWM	;wreg free
   294                           
   295                           ;Configuracion.c: 142: inicializaRC2_PWM();
   296  000260  EC77  F001         	call	_inicializaRC2_PWM	;wreg free
   297                           
   298                           ;Configuracion.c: 143: inicializaRC3_O();
   299  000264  ECCA  F001         	call	_inicializaRC3_O	;wreg free
   300                           
   301                           ;Configuracion.c: 144: inicializaRC4_O();
   302  000268  ECC7  F001         	call	_inicializaRC4_O	;wreg free
   303                           
   304                           ;Configuracion.c: 145: inicializaAnalogicas();
   305  00026C  EC66  F001         	call	_inicializaAnalogicas	;wreg free
   306                           
   307                           ;Configuracion.c: 146: inicializaAN0_I();
   308  000270  ECD3  F001         	call	_inicializaAN0_I	;wreg free
   309                           
   310                           ;Configuracion.c: 147: inicializaAN1_I();
   311  000274  ECD0  F001         	call	_inicializaAN1_I	;wreg free
   312                           
   313                           ;Configuracion.c: 148: inicializaTimer2_PWM();
   314  000278  EC9C  F001         	call	_inicializaTimer2_PWM	;wreg free
   315                           
   316                           ;Configuracion.c: 149: inicializaRC0_O();
   317  00027C  ECCD  F001         	call	_inicializaRC0_O	;wreg free
   318                           
   319                           ;Configuracion.c: 150: inicializaRC5_O();
   320  000280  ECC4  F001         	call	_inicializaRC5_O	;wreg free
   321                           
   322                           ;Configuracion.c: 151: inicializaRC0_O();
   323  000284  ECCD  F001         	call	_inicializaRC0_O	;wreg free
   324                           
   325                           ;Configuracion.c: 152: inicializaRB4_5_O();
   326  000288  ECA7  F001         	call	_inicializaRB4_5_O	;wreg free
   327                           
   328                           ;Configuracion.c: 153: ADCON0bits.GO = 1;
   329  00028C  82C2               	bsf	4034,1,c	;volatile
   330  00028E  0012               	return		;funcret
   331  000290                     __end_of_inicializaManipuladorMagnetico:
   332                           	opt stack 0
   333                           
   334 ;; *************** function _inicializaTimer2_PWM *****************
   335 ;; Defined at:
   336 ;;		line 72 in file "Configuracion.c"
   337 ;; Parameters:    Size  Location     Type
   338 ;;		None
   339 ;; Auto vars:     Size  Location     Type
   340 ;;		None
   341 ;; Return value:  Size  Location     Type
   342 ;;                  1    wreg      void 
   343 ;; Registers used:
   344 ;;		wreg, status,2
   345 ;; Tracked objects:
   346 ;;		On entry : 0/0
   347 ;;		On exit  : 0/0
   348 ;;		Unchanged: 0/0
   349 ;; Data sizes:     COMRAM   BANK0   BANK1   BANK2   BANK3   BANK4   BANK5
   350 ;;      Params:         0       0       0       0       0       0       0
   351 ;;      Locals:         0       0       0       0       0       0       0
   352 ;;      Temps:          0       0       0       0       0       0       0
   353 ;;      Totals:         0       0       0       0       0       0       0
   354 ;;Total ram usage:        0 bytes
   355 ;; Hardware stack levels used:    1
   356 ;; Hardware stack levels required when called:    2
   357 ;; This function calls:
   358 ;;		Nothing
   359 ;; This function is called by:
   360 ;;		_inicializaManipuladorMagnetico
   361 ;; This function uses a non-reentrant model
   362 ;;
   363                           
   364                           	psect	text2
   365  000338                     __ptext2:
   366                           	opt stack 0
   367  000338                     _inicializaTimer2_PWM:
   368                           	opt stack 27
   369                           
   370                           ;Configuracion.c: 73: PIE1bits.TMR2IE = 0;
   371                           
   372                           ;incstack = 0
   373  000338  929D               	bcf	3997,1,c	;volatile
   374                           
   375                           ;Configuracion.c: 79: PR2 = 249;
   376  00033A  0EF9               	movlw	249
   377  00033C  6ECB               	movwf	4043,c	;volatile
   378                           
   379                           ;Configuracion.c: 80: TMR2 = 0;
   380  00033E  0E00               	movlw	0
   381  000340  6ECC               	movwf	4044,c	;volatile
   382                           
   383                           ;Configuracion.c: 81: T2CONbits.T2CKPS = 0b01;
   384  000342  50CA               	movf	4042,w,c	;volatile
   385  000344  0BFC               	andlw	-4
   386  000346  0901               	iorlw	1
   387  000348  6ECA               	movwf	4042,c	;volatile
   388                           
   389                           ;Configuracion.c: 82: T2CONbits.TMR2ON = 1;
   390  00034A  84CA               	bsf	4042,2,c	;volatile
   391  00034C  0012               	return		;funcret
   392  00034E                     __end_of_inicializaTimer2_PWM:
   393                           	opt stack 0
   394                           
   395 ;; *************** function _inicializaRC5_O *****************
   396 ;; Defined at:
   397 ;;		line 119 in file "Configuracion.c"
   398 ;; Parameters:    Size  Location     Type
   399 ;;		None
   400 ;; Auto vars:     Size  Location     Type
   401 ;;		None
   402 ;; Return value:  Size  Location     Type
   403 ;;                  1    wreg      void 
   404 ;; Registers used:
   405 ;;		None
   406 ;; Tracked objects:
   407 ;;		On entry : 0/0
   408 ;;		On exit  : 0/0
   409 ;;		Unchanged: 0/0
   410 ;; Data sizes:     COMRAM   BANK0   BANK1   BANK2   BANK3   BANK4   BANK5
   411 ;;      Params:         0       0       0       0       0       0       0
   412 ;;      Locals:         0       0       0       0       0       0       0
   413 ;;      Temps:          0       0       0       0       0       0       0
   414 ;;      Totals:         0       0       0       0       0       0       0
   415 ;;Total ram usage:        0 bytes
   416 ;; Hardware stack levels used:    1
   417 ;; Hardware stack levels required when called:    2
   418 ;; This function calls:
   419 ;;		Nothing
   420 ;; This function is called by:
   421 ;;		_inicializaManipuladorMagnetico
   422 ;; This function uses a non-reentrant model
   423 ;;
   424                           
   425                           	psect	text3
   426  000388                     __ptext3:
   427                           	opt stack 0
   428  000388                     _inicializaRC5_O:
   429                           	opt stack 27
   430                           
   431                           ;Configuracion.c: 120: TRISCbits.RC5 = 0;
   432                           
   433                           ;incstack = 0
   434  000388  9A94               	bcf	3988,5,c	;volatile
   435                           
   436                           ;Configuracion.c: 121: PORTCbits.RC5 = 0;
   437  00038A  9A82               	bcf	3970,5,c	;volatile
   438  00038C  0012               	return		;funcret
   439  00038E                     __end_of_inicializaRC5_O:
   440                           	opt stack 0
   441                           
   442 ;; *************** function _inicializaRC4_O *****************
   443 ;; Defined at:
   444 ;;		line 51 in file "Configuracion.c"
   445 ;; Parameters:    Size  Location     Type
   446 ;;		None
   447 ;; Auto vars:     Size  Location     Type
   448 ;;		None
   449 ;; Return value:  Size  Location     Type
   450 ;;                  1    wreg      void 
   451 ;; Registers used:
   452 ;;		None
   453 ;; Tracked objects:
   454 ;;		On entry : 0/0
   455 ;;		On exit  : 0/0
   456 ;;		Unchanged: 0/0
   457 ;; Data sizes:     COMRAM   BANK0   BANK1   BANK2   BANK3   BANK4   BANK5
   458 ;;      Params:         0       0       0       0       0       0       0
   459 ;;      Locals:         0       0       0       0       0       0       0
   460 ;;      Temps:          0       0       0       0       0       0       0
   461 ;;      Totals:         0       0       0       0       0       0       0
   462 ;;Total ram usage:        0 bytes
   463 ;; Hardware stack levels used:    1
   464 ;; Hardware stack levels required when called:    2
   465 ;; This function calls:
   466 ;;		Nothing
   467 ;; This function is called by:
   468 ;;		_inicializaManipuladorMagnetico
   469 ;; This function uses a non-reentrant model
   470 ;;
   471                           
   472                           	psect	text4
   473  00038E                     __ptext4:
   474                           	opt stack 0
   475  00038E                     _inicializaRC4_O:
   476                           	opt stack 27
   477                           
   478                           ;Configuracion.c: 52: TRISCbits.RC4 = 0;
   479                           
   480                           ;incstack = 0
   481  00038E  9894               	bcf	3988,4,c	;volatile
   482                           
   483                           ;Configuracion.c: 53: PORTCbits.RC4 = 0;
   484  000390  9882               	bcf	3970,4,c	;volatile
   485  000392  0012               	return		;funcret
   486  000394                     __end_of_inicializaRC4_O:
   487                           	opt stack 0
   488                           
   489 ;; *************** function _inicializaRC3_O *****************
   490 ;; Defined at:
   491 ;;		line 47 in file "Configuracion.c"
   492 ;; Parameters:    Size  Location     Type
   493 ;;		None
   494 ;; Auto vars:     Size  Location     Type
   495 ;;		None
   496 ;; Return value:  Size  Location     Type
   497 ;;                  1    wreg      void 
   498 ;; Registers used:
   499 ;;		None
   500 ;; Tracked objects:
   501 ;;		On entry : 0/0
   502 ;;		On exit  : 0/0
   503 ;;		Unchanged: 0/0
   504 ;; Data sizes:     COMRAM   BANK0   BANK1   BANK2   BANK3   BANK4   BANK5
   505 ;;      Params:         0       0       0       0       0       0       0
   506 ;;      Locals:         0       0       0       0       0       0       0
   507 ;;      Temps:          0       0       0       0       0       0       0
   508 ;;      Totals:         0       0       0       0       0       0       0
   509 ;;Total ram usage:        0 bytes
   510 ;; Hardware stack levels used:    1
   511 ;; Hardware stack levels required when called:    2
   512 ;; This function calls:
   513 ;;		Nothing
   514 ;; This function is called by:
   515 ;;		_inicializaManipuladorMagnetico
   516 ;; This function uses a non-reentrant model
   517 ;;
   518                           
   519                           	psect	text5
   520  000394                     __ptext5:
   521                           	opt stack 0
   522  000394                     _inicializaRC3_O:
   523                           	opt stack 27
   524                           
   525                           ;Configuracion.c: 48: TRISCbits.RC3 = 0;
   526                           
   527                           ;incstack = 0
   528  000394  9694               	bcf	3988,3,c	;volatile
   529                           
   530                           ;Configuracion.c: 49: PORTCbits.RC3 = 0;
   531  000396  9682               	bcf	3970,3,c	;volatile
   532  000398  0012               	return		;funcret
   533  00039A                     __end_of_inicializaRC3_O:
   534                           	opt stack 0
   535                           
   536 ;; *************** function _inicializaRC2_PWM *****************
   537 ;; Defined at:
   538 ;;		line 63 in file "Configuracion.c"
   539 ;; Parameters:    Size  Location     Type
   540 ;;		None
   541 ;; Auto vars:     Size  Location     Type
   542 ;;		None
   543 ;; Return value:  Size  Location     Type
   544 ;;                  1    wreg      void 
   545 ;; Registers used:
   546 ;;		wreg, status,2
   547 ;; Tracked objects:
   548 ;;		On entry : 0/0
   549 ;;		On exit  : 0/0
   550 ;;		Unchanged: 0/0
   551 ;; Data sizes:     COMRAM   BANK0   BANK1   BANK2   BANK3   BANK4   BANK5
   552 ;;      Params:         0       0       0       0       0       0       0
   553 ;;      Locals:         0       0       0       0       0       0       0
   554 ;;      Temps:          0       0       0       0       0       0       0
   555 ;;      Totals:         0       0       0       0       0       0       0
   556 ;;Total ram usage:        0 bytes
   557 ;; Hardware stack levels used:    1
   558 ;; Hardware stack levels required when called:    2
   559 ;; This function calls:
   560 ;;		Nothing
   561 ;; This function is called by:
   562 ;;		_inicializaManipuladorMagnetico
   563 ;; This function uses a non-reentrant model
   564 ;;
   565                           
   566                           	psect	text6
   567  0002EE                     __ptext6:
   568                           	opt stack 0
   569  0002EE                     _inicializaRC2_PWM:
   570                           	opt stack 27
   571                           
   572                           ;Configuracion.c: 64: TRISCbits.RC2 = 0;
   573                           
   574                           ;incstack = 0
   575  0002EE  9494               	bcf	3988,2,c	;volatile
   576                           
   577                           ;Configuracion.c: 65: CCP1CONbits.P1M = 0b00;
   578  0002F0  0E3F               	movlw	-193
   579  0002F2  16BD               	andwf	4029,f,c	;volatile
   580                           
   581                           ;Configuracion.c: 66: CCP1CONbits.CCP1M = 0b1100;
   582  0002F4  50BD               	movf	4029,w,c	;volatile
   583  0002F6  0BF0               	andlw	-16
   584  0002F8  090C               	iorlw	12
   585  0002FA  6EBD               	movwf	4029,c	;volatile
   586                           
   587                           ;Configuracion.c: 67: CCP1CONbits.DC1B = 0b00;
   588  0002FC  0ECF               	movlw	-49
   589  0002FE  16BD               	andwf	4029,f,c	;volatile
   590                           
   591                           ;Configuracion.c: 68: CCPR1L = 0;
   592  000300  0E00               	movlw	0
   593  000302  6EBE               	movwf	4030,c	;volatile
   594                           
   595                           ;Configuracion.c: 69: CCPR1H = 0;
   596  000304  0E00               	movlw	0
   597  000306  6EBF               	movwf	4031,c	;volatile
   598  000308  0012               	return		;funcret
   599  00030A                     __end_of_inicializaRC2_PWM:
   600                           	opt stack 0
   601                           
   602 ;; *************** function _inicializaRC1_PWM *****************
   603 ;; Defined at:
   604 ;;		line 56 in file "Configuracion.c"
   605 ;; Parameters:    Size  Location     Type
   606 ;;		None
   607 ;; Auto vars:     Size  Location     Type
   608 ;;		None
   609 ;; Return value:  Size  Location     Type
   610 ;;                  1    wreg      void 
   611 ;; Registers used:
   612 ;;		wreg, status,2
   613 ;; Tracked objects:
   614 ;;		On entry : 0/0
   615 ;;		On exit  : 0/0
   616 ;;		Unchanged: 0/0
   617 ;; Data sizes:     COMRAM   BANK0   BANK1   BANK2   BANK3   BANK4   BANK5
   618 ;;      Params:         0       0       0       0       0       0       0
   619 ;;      Locals:         0       0       0       0       0       0       0
   620 ;;      Temps:          0       0       0       0       0       0       0
   621 ;;      Totals:         0       0       0       0       0       0       0
   622 ;;Total ram usage:        0 bytes
   623 ;; Hardware stack levels used:    1
   624 ;; Hardware stack levels required when called:    2
   625 ;; This function calls:
   626 ;;		Nothing
   627 ;; This function is called by:
   628 ;;		_inicializaManipuladorMagnetico
   629 ;; This function uses a non-reentrant model
   630 ;;
   631                           
   632                           	psect	text7
   633  00030A                     __ptext7:
   634                           	opt stack 0
   635  00030A                     _inicializaRC1_PWM:
   636                           	opt stack 27
   637                           
   638                           ;Configuracion.c: 57: TRISCbits.RC1 = 0;
   639                           
   640                           ;incstack = 0
   641  00030A  9294               	bcf	3988,1,c	;volatile
   642                           
   643                           ;Configuracion.c: 58: CCP2CONbits.CCP2M = 0b1100;
   644  00030C  50BA               	movf	4026,w,c	;volatile
   645  00030E  0BF0               	andlw	-16
   646  000310  090C               	iorlw	12
   647  000312  6EBA               	movwf	4026,c	;volatile
   648                           
   649                           ;Configuracion.c: 59: CCP2CONbits.DC2B = 0b00;
   650  000314  0ECF               	movlw	-49
   651  000316  16BA               	andwf	4026,f,c	;volatile
   652                           
   653                           ;Configuracion.c: 60: CCPR2L = 0;
   654  000318  0E00               	movlw	0
   655  00031A  6EBB               	movwf	4027,c	;volatile
   656                           
   657                           ;Configuracion.c: 61: CCPR2H = 0;
   658  00031C  0E00               	movlw	0
   659  00031E  6EBC               	movwf	4028,c	;volatile
   660  000320  0012               	return		;funcret
   661  000322                     __end_of_inicializaRC1_PWM:
   662                           	opt stack 0
   663                           
   664 ;; *************** function _inicializaRC0_O *****************
   665 ;; Defined at:
   666 ;;		line 115 in file "Configuracion.c"
   667 ;; Parameters:    Size  Location     Type
   668 ;;		None
   669 ;; Auto vars:     Size  Location     Type
   670 ;;		None
   671 ;; Return value:  Size  Location     Type
   672 ;;                  1    wreg      void 
   673 ;; Registers used:
   674 ;;		None
   675 ;; Tracked objects:
   676 ;;		On entry : 0/0
   677 ;;		On exit  : 0/0
   678 ;;		Unchanged: 0/0
   679 ;; Data sizes:     COMRAM   BANK0   BANK1   BANK2   BANK3   BANK4   BANK5
   680 ;;      Params:         0       0       0       0       0       0       0
   681 ;;      Locals:         0       0       0       0       0       0       0
   682 ;;      Temps:          0       0       0       0       0       0       0
   683 ;;      Totals:         0       0       0       0       0       0       0
   684 ;;Total ram usage:        0 bytes
   685 ;; Hardware stack levels used:    1
   686 ;; Hardware stack levels required when called:    2
   687 ;; This function calls:
   688 ;;		Nothing
   689 ;; This function is called by:
   690 ;;		_inicializaManipuladorMagnetico
   691 ;; This function uses a non-reentrant model
   692 ;;
   693                           
   694                           	psect	text8
   695  00039A                     __ptext8:
   696                           	opt stack 0
   697  00039A                     _inicializaRC0_O:
   698                           	opt stack 27
   699                           
   700                           ;Configuracion.c: 116: TRISCbits.RC0 = 0;
   701                           
   702                           ;incstack = 0
   703  00039A  9094               	bcf	3988,0,c	;volatile
   704                           
   705                           ;Configuracion.c: 117: PORTCbits.RC0 = 0;
   706  00039C  9082               	bcf	3970,0,c	;volatile
   707  00039E  0012               	return		;funcret
   708  0003A0                     __end_of_inicializaRC0_O:
   709                           	opt stack 0
   710                           
   711 ;; *************** function _inicializaRB4_5_O *****************
   712 ;; Defined at:
   713 ;;		line 35 in file "Configuracion.c"
   714 ;; Parameters:    Size  Location     Type
   715 ;;		None
   716 ;; Auto vars:     Size  Location     Type
   717 ;;		None
   718 ;; Return value:  Size  Location     Type
   719 ;;                  1    wreg      void 
   720 ;; Registers used:
   721 ;;		None
   722 ;; Tracked objects:
   723 ;;		On entry : 0/0
   724 ;;		On exit  : 0/0
   725 ;;		Unchanged: 0/0
   726 ;; Data sizes:     COMRAM   BANK0   BANK1   BANK2   BANK3   BANK4   BANK5
   727 ;;      Params:         0       0       0       0       0       0       0
   728 ;;      Locals:         0       0       0       0       0       0       0
   729 ;;      Temps:          0       0       0       0       0       0       0
   730 ;;      Totals:         0       0       0       0       0       0       0
   731 ;;Total ram usage:        0 bytes
   732 ;; Hardware stack levels used:    1
   733 ;; Hardware stack levels required when called:    2
   734 ;; This function calls:
   735 ;;		Nothing
   736 ;; This function is called by:
   737 ;;		_inicializaManipuladorMagnetico
   738 ;; This function uses a non-reentrant model
   739 ;;
   740                           
   741                           	psect	text9
   742  00034E                     __ptext9:
   743                           	opt stack 0
   744  00034E                     _inicializaRB4_5_O:
   745                           	opt stack 27
   746                           
   747                           ;Configuracion.c: 36: TRISBbits.RB4 = 1;
   748                           
   749                           ;incstack = 0
   750  00034E  8893               	bsf	3987,4,c	;volatile
   751                           
   752                           ;Configuracion.c: 37: TRISBbits.RB5 = 1;
   753  000350  8A93               	bsf	3987,5,c	;volatile
   754                           
   755                           ;Configuracion.c: 39: INTCONbits.RBIE = 1;
   756  000352  86F2               	bsf	intcon,3,c	;volatile
   757                           
   758                           ;Configuracion.c: 40: INTCONbits.RBIF = 0;
   759  000354  90F2               	bcf	intcon,0,c	;volatile
   760                           
   761                           ;Configuracion.c: 42: INTCON2bits.RBIP = 0;
   762  000356  90F1               	bcf	intcon2,0,c	;volatile
   763                           
   764                           ;Configuracion.c: 43: IOCBbits.IOCB4 =1;
   765  000358  887D               	bsf	3965,4,c	;volatile
   766                           
   767                           ;Configuracion.c: 44: IOCBbits.IOCB5 = 1;
   768  00035A  8A7D               	bsf	3965,5,c	;volatile
   769  00035C  0012               	return		;funcret
   770  00035E                     __end_of_inicializaRB4_5_O:
   771                           	opt stack 0
   772                           intcon	equ	0xFF2
   773                           intcon2	equ	0xFF1
   774                           
   775 ;; *************** function _inicializaRB2_I *****************
   776 ;; Defined at:
   777 ;;		line 27 in file "Configuracion.c"
   778 ;; Parameters:    Size  Location     Type
   779 ;;		None
   780 ;; Auto vars:     Size  Location     Type
   781 ;;		None
   782 ;; Return value:  Size  Location     Type
   783 ;;                  1    wreg      void 
   784 ;; Registers used:
   785 ;;		None
   786 ;; Tracked objects:
   787 ;;		On entry : 0/0
   788 ;;		On exit  : 0/0
   789 ;;		Unchanged: 0/0
   790 ;; Data sizes:     COMRAM   BANK0   BANK1   BANK2   BANK3   BANK4   BANK5
   791 ;;      Params:         0       0       0       0       0       0       0
   792 ;;      Locals:         0       0       0       0       0       0       0
   793 ;;      Temps:          0       0       0       0       0       0       0
   794 ;;      Totals:         0       0       0       0       0       0       0
   795 ;;Total ram usage:        0 bytes
   796 ;; Hardware stack levels used:    1
   797 ;; Hardware stack levels required when called:    2
   798 ;; This function calls:
   799 ;;		Nothing
   800 ;; This function is called by:
   801 ;;		_inicializaManipuladorMagnetico
   802 ;; This function uses a non-reentrant model
   803 ;;
   804                           
   805                           	psect	text10
   806  00036A                     __ptext10:
   807                           	opt stack 0
   808  00036A                     _inicializaRB2_I:
   809                           	opt stack 27
   810                           
   811                           ;Configuracion.c: 28: TRISBbits.RB2 = 1;
   812                           
   813                           ;incstack = 0
   814  00036A  8493               	bsf	3987,2,c	;volatile
   815                           
   816                           ;Configuracion.c: 30: INTCON3bits.INT2F = 0;
   817  00036C  92F0               	bcf	intcon3,1,c	;volatile
   818                           
   819                           ;Configuracion.c: 31: INTCON3bits.INT2E = 1;
   820  00036E  88F0               	bsf	intcon3,4,c	;volatile
   821                           
   822                           ;Configuracion.c: 32: INTCON2bits.INTEDG2 = 1;
   823  000370  88F1               	bsf	intcon2,4,c	;volatile
   824  000372  0012               	return		;funcret
   825  000374                     __end_of_inicializaRB2_I:
   826                           	opt stack 0
   827                           intcon	equ	0xFF2
   828                           intcon2	equ	0xFF1
   829                           intcon3	equ	0xFF0
   830                           
   831 ;; *************** function _inicializaRB1_I *****************
   832 ;; Defined at:
   833 ;;		line 20 in file "Configuracion.c"
   834 ;; Parameters:    Size  Location     Type
   835 ;;		None
   836 ;; Auto vars:     Size  Location     Type
   837 ;;		None
   838 ;; Return value:  Size  Location     Type
   839 ;;                  1    wreg      void 
   840 ;; Registers used:
   841 ;;		None
   842 ;; Tracked objects:
   843 ;;		On entry : 0/0
   844 ;;		On exit  : 0/0
   845 ;;		Unchanged: 0/0
   846 ;; Data sizes:     COMRAM   BANK0   BANK1   BANK2   BANK3   BANK4   BANK5
   847 ;;      Params:         0       0       0       0       0       0       0
   848 ;;      Locals:         0       0       0       0       0       0       0
   849 ;;      Temps:          0       0       0       0       0       0       0
   850 ;;      Totals:         0       0       0       0       0       0       0
   851 ;;Total ram usage:        0 bytes
   852 ;; Hardware stack levels used:    1
   853 ;; Hardware stack levels required when called:    2
   854 ;; This function calls:
   855 ;;		Nothing
   856 ;; This function is called by:
   857 ;;		_inicializaManipuladorMagnetico
   858 ;; This function uses a non-reentrant model
   859 ;;
   860                           
   861                           	psect	text11
   862  000374                     __ptext11:
   863                           	opt stack 0
   864  000374                     _inicializaRB1_I:
   865                           	opt stack 27
   866                           
   867                           ;Configuracion.c: 21: TRISBbits.RB1 = 1;
   868                           
   869                           ;incstack = 0
   870  000374  8293               	bsf	3987,1,c	;volatile
   871                           
   872                           ;Configuracion.c: 23: INTCON3bits.INT1F = 0;
   873  000376  90F0               	bcf	intcon3,0,c	;volatile
   874                           
   875                           ;Configuracion.c: 24: INTCON3bits.INT1E = 1;
   876  000378  86F0               	bsf	intcon3,3,c	;volatile
   877                           
   878                           ;Configuracion.c: 25: INTCON2bits.INTEDG1 = 1;
   879  00037A  8AF1               	bsf	intcon2,5,c	;volatile
   880  00037C  0012               	return		;funcret
   881  00037E                     __end_of_inicializaRB1_I:
   882                           	opt stack 0
   883                           intcon	equ	0xFF2
   884                           intcon2	equ	0xFF1
   885                           intcon3	equ	0xFF0
   886                           
   887 ;; *************** function _inicializaRB0_I *****************
   888 ;; Defined at:
   889 ;;		line 13 in file "Configuracion.c"
   890 ;; Parameters:    Size  Location     Type
   891 ;;		None
   892 ;; Auto vars:     Size  Location     Type
   893 ;;		None
   894 ;; Return value:  Size  Location     Type
   895 ;;                  1    wreg      void 
   896 ;; Registers used:
   897 ;;		None
   898 ;; Tracked objects:
   899 ;;		On entry : 0/0
   900 ;;		On exit  : 0/0
   901 ;;		Unchanged: 0/0
   902 ;; Data sizes:     COMRAM   BANK0   BANK1   BANK2   BANK3   BANK4   BANK5
   903 ;;      Params:         0       0       0       0       0       0       0
   904 ;;      Locals:         0       0       0       0       0       0       0
   905 ;;      Temps:          0       0       0       0       0       0       0
   906 ;;      Totals:         0       0       0       0       0       0       0
   907 ;;Total ram usage:        0 bytes
   908 ;; Hardware stack levels used:    1
   909 ;; Hardware stack levels required when called:    2
   910 ;; This function calls:
   911 ;;		Nothing
   912 ;; This function is called by:
   913 ;;		_inicializaManipuladorMagnetico
   914 ;; This function uses a non-reentrant model
   915 ;;
   916                           
   917                           	psect	text12
   918  00037E                     __ptext12:
   919                           	opt stack 0
   920  00037E                     _inicializaRB0_I:
   921                           	opt stack 27
   922                           
   923                           ;Configuracion.c: 14: TRISBbits.RB0 = 1;
   924                           
   925                           ;incstack = 0
   926  00037E  8093               	bsf	3987,0,c	;volatile
   927                           
   928                           ;Configuracion.c: 16: INTCONbits.INT0IF = 0;
   929  000380  92F2               	bcf	intcon,1,c	;volatile
   930                           
   931                           ;Configuracion.c: 17: INTCONbits.INT0IE = 1;
   932  000382  88F2               	bsf	intcon,4,c	;volatile
   933                           
   934                           ;Configuracion.c: 18: INTCON2bits.INTEDG0 = 1;
   935  000384  8CF1               	bsf	intcon2,6,c	;volatile
   936  000386  0012               	return		;funcret
   937  000388                     __end_of_inicializaRB0_I:
   938                           	opt stack 0
   939                           intcon	equ	0xFF2
   940                           intcon2	equ	0xFF1
   941                           intcon3	equ	0xFF0
   942                           
   943 ;; *************** function _inicializaGlobalRB_I_Int *****************
   944 ;; Defined at:
   945 ;;		line 4 in file "Configuracion.c"
   946 ;; Parameters:    Size  Location     Type
   947 ;;		None
   948 ;; Auto vars:     Size  Location     Type
   949 ;;		None
   950 ;; Return value:  Size  Location     Type
   951 ;;                  1    wreg      void 
   952 ;; Registers used:
   953 ;;		wreg, status,2
   954 ;; Tracked objects:
   955 ;;		On entry : 0/0
   956 ;;		On exit  : 0/0
   957 ;;		Unchanged: 0/0
   958 ;; Data sizes:     COMRAM   BANK0   BANK1   BANK2   BANK3   BANK4   BANK5
   959 ;;      Params:         0       0       0       0       0       0       0
   960 ;;      Locals:         0       0       0       0       0       0       0
   961 ;;      Temps:          0       0       0       0       0       0       0
   962 ;;      Totals:         0       0       0       0       0       0       0
   963 ;;Total ram usage:        0 bytes
   964 ;; Hardware stack levels used:    1
   965 ;; Hardware stack levels required when called:    2
   966 ;; This function calls:
   967 ;;		Nothing
   968 ;; This function is called by:
   969 ;;		_inicializaManipuladorMagnetico
   970 ;; This function uses a non-reentrant model
   971 ;;
   972                           
   973                           	psect	text13
   974  00035E                     __ptext13:
   975                           	opt stack 0
   976  00035E                     _inicializaGlobalRB_I_Int:
   977                           	opt stack 27
   978                           
   979                           ;Configuracion.c: 5: ANSELH = 0;
   980                           
   981                           ;incstack = 0
   982  00035E  0E00               	movlw	0
   983  000360  6E7F               	movwf	3967,c	;volatile
   984                           
   985                           ;Configuracion.c: 6: INTCONbits.GIEH = 1;
   986  000362  8EF2               	bsf	intcon,7,c	;volatile
   987                           
   988                           ;Configuracion.c: 7: INTCONbits.GIEL = 1;
   989  000364  8CF2               	bsf	intcon,6,c	;volatile
   990                           
   991                           ;Configuracion.c: 8: RCONbits.IPEN = 1;
   992  000366  8ED0               	bsf	4048,7,c	;volatile
   993  000368  0012               	return		;funcret
   994  00036A                     __end_of_inicializaGlobalRB_I_Int:
   995                           	opt stack 0
   996                           intcon	equ	0xFF2
   997                           intcon2	equ	0xFF1
   998                           intcon3	equ	0xFF0
   999                           
  1000 ;; *************** function _inicializaAnalogicas *****************
  1001 ;; Defined at:
  1002 ;;		line 94 in file "Configuracion.c"
  1003 ;; Parameters:    Size  Location     Type
  1004 ;;		None
  1005 ;; Auto vars:     Size  Location     Type
  1006 ;;		None
  1007 ;; Return value:  Size  Location     Type
  1008 ;;                  1    wreg      void 
  1009 ;; Registers used:
  1010 ;;		wreg, status,2
  1011 ;; Tracked objects:
  1012 ;;		On entry : 0/0
  1013 ;;		On exit  : 0/0
  1014 ;;		Unchanged: 0/0
  1015 ;; Data sizes:     COMRAM   BANK0   BANK1   BANK2   BANK3   BANK4   BANK5
  1016 ;;      Params:         0       0       0       0       0       0       0
  1017 ;;      Locals:         0       0       0       0       0       0       0
  1018 ;;      Temps:          0       0       0       0       0       0       0
  1019 ;;      Totals:         0       0       0       0       0       0       0
  1020 ;;Total ram usage:        0 bytes
  1021 ;; Hardware stack levels used:    1
  1022 ;; Hardware stack levels required when called:    2
  1023 ;; This function calls:
  1024 ;;		Nothing
  1025 ;; This function is called by:
  1026 ;;		_inicializaManipuladorMagnetico
  1027 ;; This function uses a non-reentrant model
  1028 ;;
  1029                           
  1030                           	psect	text14
  1031  0002CC                     __ptext14:
  1032                           	opt stack 0
  1033  0002CC                     _inicializaAnalogicas:
  1034                           	opt stack 27
  1035                           
  1036                           ;Configuracion.c: 95: PIR1bits.ADIF = 0;
  1037                           
  1038                           ;incstack = 0
  1039  0002CC  9C9E               	bcf	3998,6,c	;volatile
  1040                           
  1041                           ;Configuracion.c: 96: PIE1bits.ADIE = 1;
  1042  0002CE  8C9D               	bsf	3997,6,c	;volatile
  1043                           
  1044                           ;Configuracion.c: 97: IPR1bits.ADIP = 0;
  1045  0002D0  9C9F               	bcf	3999,6,c	;volatile
  1046                           
  1047                           ;Configuracion.c: 100: ADRES = 0;
  1048  0002D2  0E00               	movlw	0
  1049  0002D4  6EC4               	movwf	4036,c	;volatile
  1050  0002D6  0E00               	movlw	0
  1051  0002D8  6EC3               	movwf	4035,c	;volatile
  1052                           
  1053                           ;Configuracion.c: 101: ADCON0bits.CHS = 0;
  1054  0002DA  94C2               	bcf	4034,2,c	;volatile
  1055  0002DC  96C2               	bcf	4034,3,c	;volatile
  1056  0002DE  98C2               	bcf	4034,4,c	;volatile
  1057  0002E0  9AC2               	bcf	4034,5,c	;volatile
  1058                           
  1059                           ;Configuracion.c: 102: ADCON0bits.ADON = 1;
  1060  0002E2  80C2               	bsf	4034,0,c	;volatile
  1061                           
  1062                           ;Configuracion.c: 105: ADCON2bits.ADFM = 0;
  1063  0002E4  9EC0               	bcf	4032,7,c	;volatile
  1064                           
  1065                           ;Configuracion.c: 106: ADCON2bits.ADCS = 0b111;
  1066  0002E6  80C0               	bsf	4032,0,c	;volatile
  1067  0002E8  82C0               	bsf	4032,1,c	;volatile
  1068  0002EA  84C0               	bsf	4032,2,c	;volatile
  1069  0002EC  0012               	return		;funcret
  1070  0002EE                     __end_of_inicializaAnalogicas:
  1071                           	opt stack 0
  1072                           intcon	equ	0xFF2
  1073                           intcon2	equ	0xFF1
  1074                           intcon3	equ	0xFF0
  1075                           
  1076 ;; *************** function _inicializaAN1_I *****************
  1077 ;; Defined at:
  1078 ;;		line 90 in file "Configuracion.c"
  1079 ;; Parameters:    Size  Location     Type
  1080 ;;		None
  1081 ;; Auto vars:     Size  Location     Type
  1082 ;;		None
  1083 ;; Return value:  Size  Location     Type
  1084 ;;                  1    wreg      void 
  1085 ;; Registers used:
  1086 ;;		None
  1087 ;; Tracked objects:
  1088 ;;		On entry : 0/0
  1089 ;;		On exit  : 0/0
  1090 ;;		Unchanged: 0/0
  1091 ;; Data sizes:     COMRAM   BANK0   BANK1   BANK2   BANK3   BANK4   BANK5
  1092 ;;      Params:         0       0       0       0       0       0       0
  1093 ;;      Locals:         0       0       0       0       0       0       0
  1094 ;;      Temps:          0       0       0       0       0       0       0
  1095 ;;      Totals:         0       0       0       0       0       0       0
  1096 ;;Total ram usage:        0 bytes
  1097 ;; Hardware stack levels used:    1
  1098 ;; Hardware stack levels required when called:    2
  1099 ;; This function calls:
  1100 ;;		Nothing
  1101 ;; This function is called by:
  1102 ;;		_inicializaManipuladorMagnetico
  1103 ;; This function uses a non-reentrant model
  1104 ;;
  1105                           
  1106                           	psect	text15
  1107  0003A0                     __ptext15:
  1108                           	opt stack 0
  1109  0003A0                     _inicializaAN1_I:
  1110                           	opt stack 27
  1111                           
  1112                           ;Configuracion.c: 91: TRISAbits.RA1 = 1;
  1113                           
  1114                           ;incstack = 0
  1115  0003A0  8292               	bsf	3986,1,c	;volatile
  1116                           
  1117                           ;Configuracion.c: 92: ANSELbits.ANS1 = 1;
  1118  0003A2  827E               	bsf	3966,1,c	;volatile
  1119  0003A4  0012               	return		;funcret
  1120  0003A6                     __end_of_inicializaAN1_I:
  1121                           	opt stack 0
  1122                           intcon	equ	0xFF2
  1123                           intcon2	equ	0xFF1
  1124                           intcon3	equ	0xFF0
  1125                           
  1126 ;; *************** function _inicializaAN0_I *****************
  1127 ;; Defined at:
  1128 ;;		line 86 in file "Configuracion.c"
  1129 ;; Parameters:    Size  Location     Type
  1130 ;;		None
  1131 ;; Auto vars:     Size  Location     Type
  1132 ;;		None
  1133 ;; Return value:  Size  Location     Type
  1134 ;;                  1    wreg      void 
  1135 ;; Registers used:
  1136 ;;		None
  1137 ;; Tracked objects:
  1138 ;;		On entry : 0/0
  1139 ;;		On exit  : 0/0
  1140 ;;		Unchanged: 0/0
  1141 ;; Data sizes:     COMRAM   BANK0   BANK1   BANK2   BANK3   BANK4   BANK5
  1142 ;;      Params:         0       0       0       0       0       0       0
  1143 ;;      Locals:         0       0       0       0       0       0       0
  1144 ;;      Temps:          0       0       0       0       0       0       0
  1145 ;;      Totals:         0       0       0       0       0       0       0
  1146 ;;Total ram usage:        0 bytes
  1147 ;; Hardware stack levels used:    1
  1148 ;; Hardware stack levels required when called:    2
  1149 ;; This function calls:
  1150 ;;		Nothing
  1151 ;; This function is called by:
  1152 ;;		_inicializaManipuladorMagnetico
  1153 ;; This function uses a non-reentrant model
  1154 ;;
  1155                           
  1156                           	psect	text16
  1157  0003A6                     __ptext16:
  1158                           	opt stack 0
  1159  0003A6                     _inicializaAN0_I:
  1160                           	opt stack 27
  1161                           
  1162                           ;Configuracion.c: 87: TRISAbits.RA0 = 1;
  1163                           
  1164                           ;incstack = 0
  1165  0003A6  8092               	bsf	3986,0,c	;volatile
  1166                           
  1167                           ;Configuracion.c: 88: ANSELbits.ANS0 = 1;
  1168  0003A8  807E               	bsf	3966,0,c	;volatile
  1169  0003AA  0012               	return		;funcret
  1170  0003AC                     __end_of_inicializaAN0_I:
  1171                           	opt stack 0
  1172                           intcon	equ	0xFF2
  1173                           intcon2	equ	0xFF1
  1174                           intcon3	equ	0xFF0
  1175                           
  1176 ;; *************** function _interrupcionBaixa *****************
  1177 ;; Defined at:
  1178 ;;		line 25 in file "main.c"
  1179 ;; Parameters:    Size  Location     Type
  1180 ;;		None
  1181 ;; Auto vars:     Size  Location     Type
  1182 ;;		None
  1183 ;; Return value:  Size  Location     Type
  1184 ;;                  1    wreg      void 
  1185 ;; Registers used:
  1186 ;;		wreg, status,2, status,0
  1187 ;; Tracked objects:
  1188 ;;		On entry : 0/0
  1189 ;;		On exit  : 0/0
  1190 ;;		Unchanged: 0/0
  1191 ;; Data sizes:     COMRAM   BANK0   BANK1   BANK2   BANK3   BANK4   BANK5
  1192 ;;      Params:         0       0       0       0       0       0       0
  1193 ;;      Locals:         0       0       0       0       0       0       0
  1194 ;;      Temps:         21       0       0       0       0       0       0
  1195 ;;      Totals:        21       0       0       0       0       0       0
  1196 ;;Total ram usage:       21 bytes
  1197 ;; Hardware stack levels used:    1
  1198 ;; Hardware stack levels required when called:    1
  1199 ;; This function calls:
  1200 ;;		Nothing
  1201 ;; This function is called by:
  1202 ;;		Interrupt level 1
  1203 ;; This function uses a non-reentrant model
  1204 ;;
  1205                           
  1206                           	psect	intcodelo
  1207  000018                     __pintcodelo:
  1208                           	opt stack 0
  1209  000018                     _interrupcionBaixa:
  1210                           	opt stack 27
  1211                           
  1212                           ;incstack = 0
  1213  000018  8033               	bsf	btemp,0,c	;set compiler interrupt flag (level 1)
  1214  00001A  CFD8 F013          	movff	status,??_interrupcionBaixa+4
  1215  00001E  CFE8 F014          	movff	wreg,??_interrupcionBaixa+5
  1216  000022  CFE0 F015          	movff	bsr,??_interrupcionBaixa+6
  1217  000026  CFFA F016          	movff	pclath,??_interrupcionBaixa+7
  1218  00002A  CFFB F017          	movff	pclatu,??_interrupcionBaixa+8
  1219  00002E  CFE9 F018          	movff	fsr0l,??_interrupcionBaixa+9
  1220  000032  CFEA F019          	movff	fsr0h,??_interrupcionBaixa+10
  1221  000036  CFE1 F01A          	movff	fsr1l,??_interrupcionBaixa+11
  1222  00003A  CFE2 F01B          	movff	fsr1h,??_interrupcionBaixa+12
  1223  00003E  CFD9 F01C          	movff	fsr2l,??_interrupcionBaixa+13
  1224  000042  CFDA F01D          	movff	fsr2h,??_interrupcionBaixa+14
  1225  000046  CFF3 F01E          	movff	prodl,??_interrupcionBaixa+15
  1226  00004A  CFF4 F01F          	movff	prodh,??_interrupcionBaixa+16
  1227  00004E  CFF6 F020          	movff	tblptrl,??_interrupcionBaixa+17
  1228  000052  CFF7 F021          	movff	tblptrh,??_interrupcionBaixa+18
  1229  000056  CFF8 F022          	movff	tblptru,??_interrupcionBaixa+19
  1230  00005A  CFF5 F023          	movff	tablat,??_interrupcionBaixa+20
  1231                           
  1232                           ;main.c: 26: if (PIR1bits.ADIF){
  1233  00005E  AC9E               	btfss	3998,6,c	;volatile
  1234  000060  D04F               	goto	i1l897
  1235                           
  1236                           ;main.c: 27: PIR1bits.ADIF=0;
  1237  000062  9C9E               	bcf	3998,6,c	;volatile
  1238                           
  1239                           ;main.c: 28: if(actual == 0){
  1240  000064  5029               	movf	_actual,w,c
  1241  000066  102A               	iorwf	_actual+1,w,c
  1242  000068  A4D8               	btfss	status,2,c
  1243  00006A  D023               	goto	i1l883
  1244                           
  1245                           ;main.c: 29: ultimaLectura0=(ADRESH<<2)&ADRESL;
  1246  00006C  50C4               	movf	4036,w,c	;volatile
  1247  00006E  6E0F               	movwf	??_interrupcionBaixa& (0+255),c
  1248  000070  6A10               	clrf	(??_interrupcionBaixa+1)& (0+255),c
  1249  000072  90D8               	bcf	status,0,c
  1250  000074  360F               	rlcf	??_interrupcionBaixa,f,c
  1251  000076  3610               	rlcf	??_interrupcionBaixa+1,f,c
  1252  000078  90D8               	bcf	status,0,c
  1253  00007A  360F               	rlcf	??_interrupcionBaixa,f,c
  1254  00007C  3610               	rlcf	??_interrupcionBaixa+1,f,c
  1255  00007E  50C3               	movf	4035,w,c	;volatile
  1256  000080  140F               	andwf	??_interrupcionBaixa,w,c
  1257  000082  6E2B               	movwf	_ultimaLectura0,c
  1258  000084  0E00               	movlw	0
  1259  000086  1410               	andwf	??_interrupcionBaixa+1,w,c
  1260  000088  6E2C               	movwf	_ultimaLectura0+1,c
  1261                           
  1262                           ;main.c: 30: ultimaLectura0=ADRES;
  1263  00008A  CFC3 F02B          	movff	4035,_ultimaLectura0	;volatile
  1264  00008E  CFC4 F02C          	movff	4036,_ultimaLectura0+1	;volatile
  1265                           
  1266                           ;main.c: 31: actual=1;
  1267  000092  0E00               	movlw	0
  1268  000094  6E2A               	movwf	_actual+1,c
  1269  000096  0E01               	movlw	1
  1270  000098  6E29               	movwf	_actual,c
  1271                           
  1272                           ;main.c: 32: ADCON0bits.CHS=1;
  1273  00009A  50C2               	movf	4034,w,c	;volatile
  1274  00009C  0BC3               	andlw	-61
  1275  00009E  0904               	iorlw	4
  1276  0000A0  6EC2               	movwf	4034,c	;volatile
  1277                           
  1278                           ;main.c: 33: CCPR1L = ADRESH;
  1279  0000A2  CFC4 FFBE          	movff	4036,4030	;volatile
  1280                           
  1281                           ;main.c: 34: if(CCPR1L > 249) CCPR1L=249;
  1282  0000A6  0EF9               	movlw	249
  1283  0000A8  64BE               	cpfsgt	4030,c	;volatile
  1284  0000AA  D029               	goto	i1l895
  1285  0000AC  0EF9               	movlw	249
  1286  0000AE  6EBE               	movwf	4030,c	;volatile
  1287                           
  1288                           ;main.c: 35: }else{
  1289  0000B0  D026               	goto	i1l895
  1290  0000B2                     i1l883:
  1291                           
  1292                           ;main.c: 36: ultimaLectura1=(ADRESH<<2)+(ADRESL>>6);
  1293  0000B2  CFC3 F00F          	movff	4035,??_interrupcionBaixa	;volatile
  1294  0000B6  0E06               	movlw	6
  1295  0000B8  6E10               	movwf	(??_interrupcionBaixa+1)& (0+255),c
  1296  0000BA                     i1u7_25:
  1297  0000BA  90D8               	bcf	status,0,c
  1298  0000BC  320F               	rrcf	??_interrupcionBaixa,f,c
  1299  0000BE  2E10               	decfsz	(??_interrupcionBaixa+1)& (0+255),f,c
  1300  0000C0  D7FC               	goto	i1u7_25
  1301  0000C2  50C4               	movf	4036,w,c	;volatile
  1302  0000C4  6E11               	movwf	(??_interrupcionBaixa+2)& (0+255),c
  1303  0000C6  6A12               	clrf	(??_interrupcionBaixa+3)& (0+255),c
  1304  0000C8  90D8               	bcf	status,0,c
  1305  0000CA  3611               	rlcf	??_interrupcionBaixa+2,f,c
  1306  0000CC  3612               	rlcf	??_interrupcionBaixa+3,f,c
  1307  0000CE  90D8               	bcf	status,0,c
  1308  0000D0  3611               	rlcf	??_interrupcionBaixa+2,f,c
  1309  0000D2  3612               	rlcf	??_interrupcionBaixa+3,f,c
  1310  0000D4  500F               	movf	??_interrupcionBaixa,w,c
  1311  0000D6  2411               	addwf	??_interrupcionBaixa+2,w,c
  1312  0000D8  6E2D               	movwf	_ultimaLectura1,c
  1313  0000DA  0E00               	movlw	0
  1314  0000DC  2012               	addwfc	??_interrupcionBaixa+3,w,c
  1315  0000DE  6E2E               	movwf	_ultimaLectura1+1,c
  1316                           
  1317                           ;main.c: 38: ADCON0bits.CHS=0;
  1318  0000E0  94C2               	bcf	4034,2,c	;volatile
  1319  0000E2  96C2               	bcf	4034,3,c	;volatile
  1320  0000E4  98C2               	bcf	4034,4,c	;volatile
  1321  0000E6  9AC2               	bcf	4034,5,c	;volatile
  1322                           
  1323                           ;main.c: 39: actual=0;
  1324  0000E8  0E00               	movlw	0
  1325  0000EA  6E2A               	movwf	_actual+1,c
  1326  0000EC  0E00               	movlw	0
  1327  0000EE  6E29               	movwf	_actual,c
  1328                           
  1329                           ;main.c: 40: CCPR2L = ADRESH;
  1330  0000F0  CFC4 FFBB          	movff	4036,4027	;volatile
  1331                           
  1332                           ;main.c: 41: if(CCPR2L > 249) CCPR2L=249;
  1333  0000F4  0EF9               	movlw	249
  1334  0000F6  64BB               	cpfsgt	4027,c	;volatile
  1335  0000F8  D002               	goto	i1l895
  1336  0000FA  0EF9               	movlw	249
  1337  0000FC  6EBB               	movwf	4027,c	;volatile
  1338  0000FE                     i1l895:
  1339                           
  1340                           ;main.c: 42: }
  1341                           ;main.c: 43: ADCON0bits.GO=1;
  1342  0000FE  82C2               	bsf	4034,1,c	;volatile
  1343  000100                     i1l897:
  1344                           
  1345                           ;main.c: 44: }
  1346                           ;main.c: 45: if (INTCONbits.RBIF){
  1347  000100  A0F2               	btfss	intcon,0,c	;volatile
  1348  000102  D042               	goto	i1l51
  1349                           
  1350                           ;main.c: 46: INTCONbits.RBIF = 0;
  1351  000104  90F2               	bcf	intcon,0,c	;volatile
  1352                           
  1353                           ;main.c: 47: if(!anteriorRB4 & PORTBbits.RB4){
  1354  000106  502F               	movf	_anteriorRB4,w,c
  1355  000108  1030               	iorwf	_anteriorRB4+1,w,c
  1356  00010A  A4D8               	btfss	status,2,c
  1357  00010C  D002               	goto	i1u10_20
  1358  00010E  0E01               	movlw	1
  1359  000110  D001               	goto	i1u11_20
  1360  000112                     i1u10_20:
  1361  000112  0E00               	movlw	0
  1362  000114                     i1u11_20:
  1363  000114  6E0F               	movwf	??_interrupcionBaixa& (0+255),c
  1364  000116  6A10               	clrf	(??_interrupcionBaixa+1)& (0+255),c
  1365  000118  A881               	btfss	3969,4,c	;volatile
  1366  00011A  D003               	goto	i1u12_20
  1367  00011C  6A11               	clrf	(??_interrupcionBaixa+2)& (0+255),c
  1368  00011E  2A11               	incf	(??_interrupcionBaixa+2)& (0+255),f,c
  1369  000120  D001               	goto	i1u12_28
  1370  000122                     i1u12_20:
  1371  000122  6A11               	clrf	(??_interrupcionBaixa+2)& (0+255),c
  1372  000124                     i1u12_28:
  1373  000124  5011               	movf	??_interrupcionBaixa+2,w,c
  1374  000126  160F               	andwf	??_interrupcionBaixa,f,c
  1375  000128  0E00               	movlw	0
  1376  00012A  1610               	andwf	??_interrupcionBaixa+1,f,c
  1377  00012C  500F               	movf	??_interrupcionBaixa,w,c
  1378  00012E  1010               	iorwf	??_interrupcionBaixa+1,w,c
  1379  000130  A4D8               	btfss	status,2,c
  1380                           
  1381                           ;main.c: 48: __nop();
  1382  000132  F000               	nop	
  1383                           
  1384                           ;main.c: 50: }
  1385                           ;main.c: 51: if(!anteriorRB5 & PORTBbits.RB5){
  1386  000134  5031               	movf	_anteriorRB5,w,c
  1387  000136  1032               	iorwf	_anteriorRB5+1,w,c
  1388  000138  A4D8               	btfss	status,2,c
  1389  00013A  D002               	goto	i1u14_20
  1390  00013C  0E01               	movlw	1
  1391  00013E  D001               	goto	i1u15_20
  1392  000140                     i1u14_20:
  1393  000140  0E00               	movlw	0
  1394  000142                     i1u15_20:
  1395  000142  6E0F               	movwf	??_interrupcionBaixa& (0+255),c
  1396  000144  6A10               	clrf	(??_interrupcionBaixa+1)& (0+255),c
  1397  000146  AA81               	btfss	3969,5,c	;volatile
  1398  000148  D003               	goto	i1u16_20
  1399  00014A  6A11               	clrf	(??_interrupcionBaixa+2)& (0+255),c
  1400  00014C  2A11               	incf	(??_interrupcionBaixa+2)& (0+255),f,c
  1401  00014E  D001               	goto	i1u16_28
  1402  000150                     i1u16_20:
  1403  000150  6A11               	clrf	(??_interrupcionBaixa+2)& (0+255),c
  1404  000152                     i1u16_28:
  1405  000152  5011               	movf	??_interrupcionBaixa+2,w,c
  1406  000154  160F               	andwf	??_interrupcionBaixa,f,c
  1407  000156  0E00               	movlw	0
  1408  000158  1610               	andwf	??_interrupcionBaixa+1,f,c
  1409  00015A  500F               	movf	??_interrupcionBaixa,w,c
  1410  00015C  1010               	iorwf	??_interrupcionBaixa+1,w,c
  1411  00015E  A4D8               	btfss	status,2,c
  1412                           
  1413                           ;main.c: 52: __nop();
  1414  000160  F000               	nop	
  1415                           
  1416                           ;main.c: 54: }
  1417                           ;main.c: 55: anteriorRB4 = PORTBbits.RB4;
  1418  000162  A881               	btfss	3969,4,c	;volatile
  1419  000164  D003               	goto	i1u18_20
  1420  000166  6A0F               	clrf	??_interrupcionBaixa& (0+255),c
  1421  000168  2A0F               	incf	??_interrupcionBaixa& (0+255),f,c
  1422  00016A  D001               	goto	i1u18_28
  1423  00016C                     i1u18_20:
  1424  00016C  6A0F               	clrf	??_interrupcionBaixa& (0+255),c
  1425  00016E                     i1u18_28:
  1426  00016E  500F               	movf	??_interrupcionBaixa,w,c
  1427  000170  6E2F               	movwf	_anteriorRB4,c
  1428  000172  6A30               	clrf	_anteriorRB4+1,c
  1429                           
  1430                           ;main.c: 56: anteriorRB5 = PORTBbits.RB5;
  1431  000174  AA81               	btfss	3969,5,c	;volatile
  1432  000176  D003               	goto	i1u19_20
  1433  000178  6A0F               	clrf	??_interrupcionBaixa& (0+255),c
  1434  00017A  2A0F               	incf	??_interrupcionBaixa& (0+255),f,c
  1435  00017C  D001               	goto	i1u19_28
  1436  00017E                     i1u19_20:
  1437  00017E  6A0F               	clrf	??_interrupcionBaixa& (0+255),c
  1438  000180                     i1u19_28:
  1439  000180  500F               	movf	??_interrupcionBaixa,w,c
  1440  000182  6E31               	movwf	_anteriorRB5,c
  1441  000184  6A32               	clrf	_anteriorRB5+1,c
  1442                           
  1443                           ;main.c: 57: INTCONbits.RBIF = 0;
  1444  000186  90F2               	bcf	intcon,0,c	;volatile
  1445  000188                     i1l51:
  1446  000188  C023  FFF5         	movff	??_interrupcionBaixa+20,tablat
  1447  00018C  C022  FFF8         	movff	??_interrupcionBaixa+19,tblptru
  1448  000190  C021  FFF7         	movff	??_interrupcionBaixa+18,tblptrh
  1449  000194  C020  FFF6         	movff	??_interrupcionBaixa+17,tblptrl
  1450  000198  C01F  FFF4         	movff	??_interrupcionBaixa+16,prodh
  1451  00019C  C01E  FFF3         	movff	??_interrupcionBaixa+15,prodl
  1452  0001A0  C01D  FFDA         	movff	??_interrupcionBaixa+14,fsr2h
  1453  0001A4  C01C  FFD9         	movff	??_interrupcionBaixa+13,fsr2l
  1454  0001A8  C01B  FFE2         	movff	??_interrupcionBaixa+12,fsr1h
  1455  0001AC  C01A  FFE1         	movff	??_interrupcionBaixa+11,fsr1l
  1456  0001B0  C019  FFEA         	movff	??_interrupcionBaixa+10,fsr0h
  1457  0001B4  C018  FFE9         	movff	??_interrupcionBaixa+9,fsr0l
  1458  0001B8  C017  FFFB         	movff	??_interrupcionBaixa+8,pclatu
  1459  0001BC  C016  FFFA         	movff	??_interrupcionBaixa+7,pclath
  1460  0001C0  C015  FFE0         	movff	??_interrupcionBaixa+6,bsr
  1461  0001C4  C014  FFE8         	movff	??_interrupcionBaixa+5,wreg
  1462  0001C8  C013  FFD8         	movff	??_interrupcionBaixa+4,status
  1463  0001CC  9033               	bcf	btemp,0,c	;clear compiler interrupt flag (level 1)
  1464  0001CE  0010               	retfie	
  1465  0001D0                     __end_of_interrupcionBaixa:
  1466                           	opt stack 0
  1467                           pclatu	equ	0xFFB
  1468                           pclath	equ	0xFFA
  1469                           tblptru	equ	0xFF8
  1470                           tblptrh	equ	0xFF7
  1471                           tblptrl	equ	0xFF6
  1472                           tablat	equ	0xFF5
  1473                           prodh	equ	0xFF4
  1474                           prodl	equ	0xFF3
  1475                           intcon	equ	0xFF2
  1476                           intcon2	equ	0xFF1
  1477                           intcon3	equ	0xFF0
  1478                           fsr0h	equ	0xFEA
  1479                           fsr0l	equ	0xFE9
  1480                           wreg	equ	0xFE8
  1481                           fsr1h	equ	0xFE2
  1482                           fsr1l	equ	0xFE1
  1483                           bsr	equ	0xFE0
  1484                           fsr2h	equ	0xFDA
  1485                           fsr2l	equ	0xFD9
  1486                           status	equ	0xFD8
  1487                           
  1488 ;; *************** function _interrupcionAlta *****************
  1489 ;; Defined at:
  1490 ;;		line 14 in file "main.c"
  1491 ;; Parameters:    Size  Location     Type
  1492 ;;		None
  1493 ;; Auto vars:     Size  Location     Type
  1494 ;;		None
  1495 ;; Return value:  Size  Location     Type
  1496 ;;                  1    wreg      void 
  1497 ;; Registers used:
  1498 ;;		None
  1499 ;; Tracked objects:
  1500 ;;		On entry : 0/0
  1501 ;;		On exit  : 0/0
  1502 ;;		Unchanged: 0/0
  1503 ;; Data sizes:     COMRAM   BANK0   BANK1   BANK2   BANK3   BANK4   BANK5
  1504 ;;      Params:         0       0       0       0       0       0       0
  1505 ;;      Locals:         0       0       0       0       0       0       0
  1506 ;;      Temps:         14       0       0       0       0       0       0
  1507 ;;      Totals:        14       0       0       0       0       0       0
  1508 ;;Total ram usage:       14 bytes
  1509 ;; Hardware stack levels used:    1
  1510 ;; This function calls:
  1511 ;;		Nothing
  1512 ;; This function is called by:
  1513 ;;		Interrupt level 2
  1514 ;; This function uses a non-reentrant model
  1515 ;;
  1516                           
  1517                           	psect	intcode
  1518  000008                     __pintcode:
  1519                           	opt stack 0
  1520  000008                     _interrupcionAlta:
  1521                           	opt stack 27
  1522                           
  1523                           ;incstack = 0
  1524  000008  8233               	bsf	btemp,1,c	;set compiler interrupt flag (level 2)
  1525  00000A  CFFA F001          	movff	pclath,??_interrupcionAlta
  1526  00000E  CFFB F002          	movff	pclatu,??_interrupcionAlta+1
  1527  000012  EFEA  F000         	goto	int_func
  1528                           pclatu	equ	0xFFB
  1529                           pclath	equ	0xFFA
  1530                           tblptru	equ	0xFF8
  1531                           tblptrh	equ	0xFF7
  1532                           tblptrl	equ	0xFF6
  1533                           tablat	equ	0xFF5
  1534                           prodh	equ	0xFF4
  1535                           prodl	equ	0xFF3
  1536                           intcon	equ	0xFF2
  1537                           intcon2	equ	0xFF1
  1538                           intcon3	equ	0xFF0
  1539                           fsr0h	equ	0xFEA
  1540                           fsr0l	equ	0xFE9
  1541                           wreg	equ	0xFE8
  1542                           fsr1h	equ	0xFE2
  1543                           fsr1l	equ	0xFE1
  1544                           bsr	equ	0xFE0
  1545                           fsr2h	equ	0xFDA
  1546                           fsr2l	equ	0xFD9
  1547                           status	equ	0xFD8
  1548                           
  1549                           	psect	intcode_body
  1550  0001D4                     __pintcode_body:
  1551                           	opt stack 27
  1552  0001D4                     int_func:
  1553                           	opt stack 27
  1554  0001D4  CFE9 F003          	movff	fsr0l,??_interrupcionAlta+2
  1555  0001D8  CFEA F004          	movff	fsr0h,??_interrupcionAlta+3
  1556  0001DC  CFE1 F005          	movff	fsr1l,??_interrupcionAlta+4
  1557  0001E0  CFE2 F006          	movff	fsr1h,??_interrupcionAlta+5
  1558  0001E4  CFD9 F007          	movff	fsr2l,??_interrupcionAlta+6
  1559  0001E8  CFDA F008          	movff	fsr2h,??_interrupcionAlta+7
  1560  0001EC  CFF3 F009          	movff	prodl,??_interrupcionAlta+8
  1561  0001F0  CFF4 F00A          	movff	prodh,??_interrupcionAlta+9
  1562  0001F4  CFF6 F00B          	movff	tblptrl,??_interrupcionAlta+10
  1563  0001F8  CFF7 F00C          	movff	tblptrh,??_interrupcionAlta+11
  1564  0001FC  CFF8 F00D          	movff	tblptru,??_interrupcionAlta+12
  1565  000200  CFF5 F00E          	movff	tablat,??_interrupcionAlta+13
  1566                           
  1567                           ;main.c: 15: if (INTCONbits.INT0IF){
  1568  000204  B2F2               	btfsc	intcon,1,c	;volatile
  1569                           
  1570                           ;main.c: 16: INTCONbits.INT0IF = 0;
  1571  000206  92F2               	bcf	intcon,1,c	;volatile
  1572                           
  1573                           ;main.c: 17: }
  1574                           ;main.c: 18: if (INTCON3bits.INT1IF){
  1575  000208  B0F0               	btfsc	intcon3,0,c	;volatile
  1576                           
  1577                           ;main.c: 19: INTCON3bits.INT1IF = 0;
  1578  00020A  90F0               	bcf	intcon3,0,c	;volatile
  1579                           
  1580                           ;main.c: 20: }
  1581                           ;main.c: 21: if (INTCON3bits.INT2IF){
  1582  00020C  B2F0               	btfsc	intcon3,1,c	;volatile
  1583                           
  1584                           ;main.c: 22: INTCON3bits.INT2IF = 0;
  1585  00020E  92F0               	bcf	intcon3,1,c	;volatile
  1586  000210  C00E  FFF5         	movff	??_interrupcionAlta+13,tablat
  1587  000214  C00D  FFF8         	movff	??_interrupcionAlta+12,tblptru
  1588  000218  C00C  FFF7         	movff	??_interrupcionAlta+11,tblptrh
  1589  00021C  C00B  FFF6         	movff	??_interrupcionAlta+10,tblptrl
  1590  000220  C00A  FFF4         	movff	??_interrupcionAlta+9,prodh
  1591  000224  C009  FFF3         	movff	??_interrupcionAlta+8,prodl
  1592  000228  C008  FFDA         	movff	??_interrupcionAlta+7,fsr2h
  1593  00022C  C007  FFD9         	movff	??_interrupcionAlta+6,fsr2l
  1594  000230  C006  FFE2         	movff	??_interrupcionAlta+5,fsr1h
  1595  000234  C005  FFE1         	movff	??_interrupcionAlta+4,fsr1l
  1596  000238  C004  FFEA         	movff	??_interrupcionAlta+3,fsr0h
  1597  00023C  C003  FFE9         	movff	??_interrupcionAlta+2,fsr0l
  1598  000240  C002  FFFB         	movff	??_interrupcionAlta+1,pclatu
  1599  000244  C001  FFFA         	movff	??_interrupcionAlta,pclath
  1600  000248  9233               	bcf	btemp,1,c	;clear compiler interrupt flag (level 2)
  1601  00024A  0011               	retfie		f
  1602  00024C                     __end_of_interrupcionAlta:
  1603                           	opt stack 0
  1604  0000                     pclatu	equ	0xFFB
  1605                           pclath	equ	0xFFA
  1606                           tblptru	equ	0xFF8
  1607                           tblptrh	equ	0xFF7
  1608                           tblptrl	equ	0xFF6
  1609                           tablat	equ	0xFF5
  1610                           prodh	equ	0xFF4
  1611                           prodl	equ	0xFF3
  1612                           intcon	equ	0xFF2
  1613                           intcon2	equ	0xFF1
  1614                           intcon3	equ	0xFF0
  1615                           fsr0h	equ	0xFEA
  1616                           fsr0l	equ	0xFE9
  1617                           wreg	equ	0xFE8
  1618                           fsr1h	equ	0xFE2
  1619                           fsr1l	equ	0xFE1
  1620                           bsr	equ	0xFE0
  1621                           fsr2h	equ	0xFDA
  1622                           fsr2l	equ	0xFD9
  1623                           status	equ	0xFD8
  1624                           pclatu	equ	0xFFB
  1625                           pclath	equ	0xFFA
  1626                           tblptru	equ	0xFF8
  1627                           tblptrh	equ	0xFF7
  1628                           tblptrl	equ	0xFF6
  1629                           tablat	equ	0xFF5
  1630                           prodh	equ	0xFF4
  1631                           prodl	equ	0xFF3
  1632                           intcon	equ	0xFF2
  1633                           intcon2	equ	0xFF1
  1634                           intcon3	equ	0xFF0
  1635                           fsr0h	equ	0xFEA
  1636                           fsr0l	equ	0xFE9
  1637                           wreg	equ	0xFE8
  1638                           fsr1h	equ	0xFE2
  1639                           fsr1l	equ	0xFE1
  1640                           bsr	equ	0xFE0
  1641                           fsr2h	equ	0xFDA
  1642                           fsr2l	equ	0xFD9
  1643                           status	equ	0xFD8
  1644                           
  1645                           	psect	rparam
  1646  0000                     pclatu	equ	0xFFB
  1647                           pclath	equ	0xFFA
  1648                           tblptru	equ	0xFF8
  1649                           tblptrh	equ	0xFF7
  1650                           tblptrl	equ	0xFF6
  1651                           tablat	equ	0xFF5
  1652                           prodh	equ	0xFF4
  1653                           prodl	equ	0xFF3
  1654                           intcon	equ	0xFF2
  1655                           intcon2	equ	0xFF1
  1656                           intcon3	equ	0xFF0
  1657                           fsr0h	equ	0xFEA
  1658                           fsr0l	equ	0xFE9
  1659                           wreg	equ	0xFE8
  1660                           fsr1h	equ	0xFE2
  1661                           fsr1l	equ	0xFE1
  1662                           bsr	equ	0xFE0
  1663                           fsr2h	equ	0xFDA
  1664                           fsr2l	equ	0xFD9
  1665                           status	equ	0xFD8
  1666                           
  1667                           	psect	temp
  1668  000033                     btemp:
  1669                           	opt stack 0
  1670  000033                     	ds	1
  1671  0000                     int$flags	set	btemp
  1672                           pclatu	equ	0xFFB
  1673                           pclath	equ	0xFFA
  1674                           tblptru	equ	0xFF8
  1675                           tblptrh	equ	0xFF7
  1676                           tblptrl	equ	0xFF6
  1677                           tablat	equ	0xFF5
  1678                           prodh	equ	0xFF4
  1679                           prodl	equ	0xFF3
  1680                           intcon	equ	0xFF2
  1681                           intcon2	equ	0xFF1
  1682                           intcon3	equ	0xFF0
  1683                           fsr0h	equ	0xFEA
  1684                           fsr0l	equ	0xFE9
  1685                           wreg	equ	0xFE8
  1686                           fsr1h	equ	0xFE2
  1687                           fsr1l	equ	0xFE1
  1688                           bsr	equ	0xFE0
  1689                           fsr2h	equ	0xFDA
  1690                           fsr2l	equ	0xFD9
  1691                           status	equ	0xFD8


Data Sizes:
    Strings     0
    Constant    0
    Data        0
    BSS         6
    Persistent  4
    Stack       0

Auto Spaces:
    Space          Size  Autos    Used
    COMRAM           94     40      50
    BANK0           160      0       0
    BANK1           256      0       0
    BANK2           256      0       0
    BANK3           256      0       0
    BANK4           256      0       0
    BANK5           256      0       0

Pointer List with Targets:

    None.

Critical Paths under _main in COMRAM

    None.

Critical Paths under _interrupcionBaixa in COMRAM

    None.

Critical Paths under _interrupcionAlta in COMRAM

    None.

Critical Paths under _main in BANK0

    None.

Critical Paths under _interrupcionBaixa in BANK0

    None.

Critical Paths under _interrupcionAlta in BANK0

    None.

Critical Paths under _main in BANK1

    None.

Critical Paths under _interrupcionBaixa in BANK1

    None.

Critical Paths under _interrupcionAlta in BANK1

    None.

Critical Paths under _main in BANK2

    None.

Critical Paths under _interrupcionBaixa in BANK2

    None.

Critical Paths under _interrupcionAlta in BANK2

    None.

Critical Paths under _main in BANK3

    None.

Critical Paths under _interrupcionBaixa in BANK3

    None.

Critical Paths under _interrupcionAlta in BANK3

    None.

Critical Paths under _main in BANK4

    None.

Critical Paths under _interrupcionBaixa in BANK4

    None.

Critical Paths under _interrupcionAlta in BANK4

    None.

Critical Paths under _main in BANK5

    None.

Critical Paths under _interrupcionBaixa in BANK5

    None.

Critical Paths under _interrupcionAlta in BANK5

    None.

Call Graph Tables:

 ---------------------------------------------------------------------------------
 (Depth) Function   	        Calls       Base Space   Used Autos Params    Refs
 ---------------------------------------------------------------------------------
 (0) _main                                                 5     5      0       0
                                             35 COMRAM     5     5      0
     _inicializaManipuladorMagnetico
 ---------------------------------------------------------------------------------
 (1) _inicializaManipuladorMagnetico                       0     0      0       0
                    _inicializaAN0_I
                    _inicializaAN1_I
               _inicializaAnalogicas
           _inicializaGlobalRB_I_Int
                    _inicializaRB0_I
                    _inicializaRB1_I
                    _inicializaRB2_I
                  _inicializaRB4_5_O
                    _inicializaRC0_O
                  _inicializaRC1_PWM
                  _inicializaRC2_PWM
                    _inicializaRC3_O
                    _inicializaRC4_O
                    _inicializaRC5_O
               _inicializaTimer2_PWM
 ---------------------------------------------------------------------------------
 (2) _inicializaTimer2_PWM                                 0     0      0       0
 ---------------------------------------------------------------------------------
 (2) _inicializaRC5_O                                      0     0      0       0
 ---------------------------------------------------------------------------------
 (2) _inicializaRC4_O                                      0     0      0       0
 ---------------------------------------------------------------------------------
 (2) _inicializaRC3_O                                      0     0      0       0
 ---------------------------------------------------------------------------------
 (2) _inicializaRC2_PWM                                    0     0      0       0
 ---------------------------------------------------------------------------------
 (2) _inicializaRC1_PWM                                    0     0      0       0
 ---------------------------------------------------------------------------------
 (2) _inicializaRC0_O                                      0     0      0       0
 ---------------------------------------------------------------------------------
 (2) _inicializaRB4_5_O                                    0     0      0       0
 ---------------------------------------------------------------------------------
 (2) _inicializaRB2_I                                      0     0      0       0
 ---------------------------------------------------------------------------------
 (2) _inicializaRB1_I                                      0     0      0       0
 ---------------------------------------------------------------------------------
 (2) _inicializaRB0_I                                      0     0      0       0
 ---------------------------------------------------------------------------------
 (2) _inicializaGlobalRB_I_Int                             0     0      0       0
 ---------------------------------------------------------------------------------
 (2) _inicializaAnalogicas                                 0     0      0       0
 ---------------------------------------------------------------------------------
 (2) _inicializaAN1_I                                      0     0      0       0
 ---------------------------------------------------------------------------------
 (2) _inicializaAN0_I                                      0     0      0       0
 ---------------------------------------------------------------------------------
 Estimated maximum stack depth 2
 ---------------------------------------------------------------------------------
 (Depth) Function   	        Calls       Base Space   Used Autos Params    Refs
 ---------------------------------------------------------------------------------
 (3) _interrupcionBaixa                                   21    21      0       0
                                             14 COMRAM    21    21      0
 ---------------------------------------------------------------------------------
 Estimated maximum stack depth 3
 ---------------------------------------------------------------------------------
 (Depth) Function   	        Calls       Base Space   Used Autos Params    Refs
 ---------------------------------------------------------------------------------
 (4) _interrupcionAlta                                    14    14      0       0
                                              0 COMRAM    14    14      0
 ---------------------------------------------------------------------------------
 Estimated maximum stack depth 4
 ---------------------------------------------------------------------------------

 Call Graph Graphs:

 _main (ROOT)
   _inicializaManipuladorMagnetico
     _inicializaAN0_I
     _inicializaAN1_I
     _inicializaAnalogicas
     _inicializaGlobalRB_I_Int
     _inicializaRB0_I
     _inicializaRB1_I
     _inicializaRB2_I
     _inicializaRB4_5_O
     _inicializaRC0_O
     _inicializaRC1_PWM
     _inicializaRC2_PWM
     _inicializaRC3_O
     _inicializaRC4_O
     _inicializaRC5_O
     _inicializaTimer2_PWM

 _interrupcionBaixa (ROOT)

 _interrupcionAlta (ROOT)

 Address spaces:
Name               Size   Autos  Total    Cost      Usage
BIGRAM             5FF      0       0      17        0.0%
EEDATA             100      0       0       0        0.0%
BITBANK5           100      0       0      16        0.0%
BANK5              100      0       0      14        0.0%
BITBANK4           100      0       0      12        0.0%
BANK4              100      0       0      13        0.0%
BITBANK3           100      0       0      10        0.0%
BANK3              100      0       0      11        0.0%
BITBANK2           100      0       0       8        0.0%
BANK2              100      0       0       9        0.0%
BITBANK1           100      0       0       6        0.0%
BANK1              100      0       0       7        0.0%
BITBANK0            A0      0       0       4        0.0%
BANK0               A0      0       0       5        0.0%
BITCOMRAM           5E      0       0       0        0.0%
COMRAM              5E     28      32       1       53.2%
BITSFR               0      0       0      40        0.0%
SFR                  0      0       0      40        0.0%
STACK                0      0       0       2        0.0%
NULL                 0      0       0       0        0.0%
ABS                  0      0      32      15        0.0%
DATA                 0      0      32       3        0.0%
CODE                 0      0       0       0        0.0%


Microchip Technology PIC18 Macro Assembler V1.38 build -256452561 
Symbol Table                                                                                   Sat Feb 27 19:19:47 2021

                       ?_inicializaAN0_I 0001                         ?_inicializaAN1_I 0001  
                       ?_inicializaRB0_I 0001                         ?_inicializaRB1_I 0001  
                       ?_inicializaRB2_I 0001                         ?_inicializaRC0_O 0001  
                       ?_inicializaRC3_O 0001                         ?_inicializaRC4_O 0001  
                       ?_inicializaRC5_O 0001                        _inicializaRB4_5_O 034E  
                      _inicializaRC1_PWM 030A                        _inicializaRC2_PWM 02EE  
                                     bsr 000FE0                       ?_inicializaRB4_5_O 0001  
                     ?_inicializaRC1_PWM 0001                       ?_inicializaRC2_PWM 0001  
                                    l919 02B8                                      u200 029E  
                                    u210 02B0                                      u208 02A0  
                                    u218 02B2                                      _PR2 000FCB  
                                    wreg 000FE8                      ??_inicializaRB4_5_O 0024  
                    ??_inicializaRC1_PWM 0024                      ??_inicializaRC2_PWM 0024  
                           __CFG_LVP$OFF 000000                                     i1l51 0188  
                                   _TMR2 000FCC                                     _main 0290  
                                   fsr0h 000FEA                                     fsr1h 000FE2  
                                   fsr0l 000FE9                                     fsr2h 000FDA  
                                   fsr1l 000FE1                                     fsr2l 000FD9  
                                   btemp 0033                 __end_of_interrupcionAlta 024C  
                                   pclat 000FFA         ??_inicializaManipuladorMagnetico 0024  
        ?_inicializaManipuladorMagnetico 0001                                     prodh 000FF4  
                                   prodl 000FF3                                     start 01D0  
                           ___param_bank 000010                __end_of_inicializaRB4_5_O 035E  
              __end_of_inicializaRC1_PWM 0322                __end_of_inicializaRC2_PWM 030A  
                                  ?_main 0001                                    _ADRES 000FC3  
                                  i1l883 00B2                                    i1l895 00FE  
                                  i1l897 0100                                    _PORTD 000F83  
                                  _TRISD 000F95                                    tablat 000FF5  
           __end_of_inicializaAnalogicas 02EE                                    status 000FD8  
                        __initialization 0322                             __end_of_main 02CC  
                                 ??_main 0024                            __activetblptr 000000  
                                 _ADRESH 000FC4                                   _ADRESL 000FC3  
                                 _CCPR1H 000FBF                                   _CCPR2H 000FBC  
                                 _CCPR1L 000FBE                                   _CCPR2L 000FBB  
                                 _ANSELH 000F7F                           __CFG_WDTEN$OFF 000000  
                                 i1u7_25 00BA               __size_of_inicializaRB4_5_O 0010  
             __size_of_inicializaRC1_PWM 0018               __size_of_inicializaRC2_PWM 001C  
                                 _actual 0029                                   tblptrh 000FF7  
                                 tblptrl 000FF6                                   tblptru 000FF8  
                             __accesstop 0060                  __end_of__initialization 032E  
                        __CFG_PBADEN$OFF 000000             __end_of_inicializaTimer2_PWM 034E  
                          ___rparam_used 000001                           __pcstackCOMRAM 0001  
                   _inicializaAnalogicas 02CC                           _ultimaLectura0 002B  
                         _ultimaLectura1 002D                               __pnvCOMRAM 002F  
                      ?_interrupcionAlta 0001                       ??_interrupcionAlta 0001  
                  ?_inicializaAnalogicas 0001   __end_of_inicializaManipuladorMagnetico 0290  
__size_of_inicializaManipuladorMagnetico 0044           _inicializaManipuladorMagnetico 024C  
               __size_of_inicializaAN0_I 0006                 __size_of_inicializaAN1_I 0006  
               __size_of_inicializaRB0_I 000A                 __size_of_inicializaRB1_I 000A  
               __size_of_inicializaRB2_I 000A                 _inicializaGlobalRB_I_Int 035E  
               __size_of_inicializaRC0_O 0006                 __size_of_inicializaRC3_O 0006  
               __size_of_inicializaRC4_O 0006                 __size_of_inicializaRC5_O 0006  
                                i1u10_20 0112                                  i1u11_20 0114  
                                i1u12_20 0122                                  i1u12_28 0124  
                                i1u14_20 0140                                  i1u15_20 0142  
                                i1u16_20 0150                                  i1u16_28 0152  
                                i1u18_20 016C                                  i1u19_20 017E  
                                i1u18_28 016E                                  i1u19_28 0180  
                                __Hparam 0000                                  __Lparam 0000  
                                __pcinit 0322                                _ANSELbits 000F7E  
                                __ramtop 0600                                  __ptext0 0290  
                                __ptext1 024C                                  __ptext2 0338  
                                __ptext3 0388                                  __ptext4 038E  
                                __ptext5 0394                                  __ptext6 02EE  
                                __ptext7 030A                                  __ptext8 039A  
                                __ptext9 034E                                _T2CONbits 000FCA  
                   _inicializaTimer2_PWM 0338                           __pintcode_body 01D4  
                   end_of_initialization 032E                                  int_func 01D4  
                 ??_inicializaAnalogicas 0024                                _PORTBbits 000F81  
                              _PORTCbits 000F82                    ?_inicializaTimer2_PWM 0001  
                              _TRISAbits 000F92                                _TRISBbits 000F93  
                              _TRISCbits 000F94                        ??_inicializaAN0_I 0024  
                      ??_inicializaAN1_I 0024                        ??_inicializaRB0_I 0024  
                      ??_inicializaRB1_I 0024                        ??_inicializaRB2_I 0024  
                      ??_inicializaRC0_O 0024                        ??_inicializaRC3_O 0024  
                      ??_inicializaRC4_O 0024                        ??_inicializaRC5_O 0024  
                            _CCP1CONbits 000FBD                              _CCP2CONbits 000FBA  
                    start_initialization 0322               ??_inicializaGlobalRB_I_Int 0024  
                 ??_inicializaTimer2_PWM 0024                __size_of_interrupcionAlta 0244  
                            __pbssCOMRAM 0029                        _interrupcionBaixa 0018  
                     ?_interrupcionBaixa 0001                      ??_interrupcionBaixa 000F  
                              __pintcode 0008                              __pintcodelo 0018  
              __end_of_interrupcionBaixa 01D0                                 _IOCBbits 000F7D  
                               _LATBbits 000F8A                              _anteriorRB4 002F  
                            _anteriorRB5 0031                                 _IPR1bits 000F9F  
                               _PIE1bits 000F9D                                 _PIR1bits 000F9E  
                               _RCONbits 000FD0                          _inicializaAN0_I 03A6  
                        _inicializaAN1_I 03A0                               _ADCON0bits 000FC2  
                             _ADCON2bits 000FC0                          _inicializaRB0_I 037E  
                        _inicializaRB1_I 0374                          _inicializaRB2_I 036A  
                        _inicializaRC0_O 039A                          _inicializaRC3_O 0394  
                        _inicializaRC4_O 038E                          _inicializaRC5_O 0388  
                            _INTCON2bits 000FF1                              _INTCON3bits 000FF0  
                               __Hrparam 0000                                 __Lrparam 0000  
       __end_of_inicializaGlobalRB_I_Int 036A            __size_of_inicializaAnalogicas 0022  
                       _interrupcionAlta 0008               __size_of_interrupcionBaixa 01B8  
                               __ptext10 036A                                 __ptext11 0374  
                               __ptext12 037E                                 __ptext13 035E  
                               __ptext14 02CC                                 __ptext15 03A0  
                               __ptext16 03A6                            __size_of_main 003C  
                __end_of_inicializaAN0_I 03AC                  __end_of_inicializaAN1_I 03A6  
                __end_of_inicializaRB0_I 0388                  __end_of_inicializaRB1_I 037E  
                __end_of_inicializaRB2_I 0374                  __end_of_inicializaRC0_O 03A0  
                __end_of_inicializaRC3_O 039A                  __end_of_inicializaRC4_O 0394  
                __end_of_inicializaRC5_O 038E                                 int$flags 0033  
                               main@var1 0025                                 main@var2 0027  
                             _INTCONbits 000FF2                                 intlevel1 0000  
                               intlevel2 0000            __size_of_inicializaTimer2_PWM 0016  
      __size_of_inicializaGlobalRB_I_Int 000C                ?_inicializaGlobalRB_I_Int 0001  
                      __CFG_FOSC$INTIO67 000000  
