

Microchip Technology PIC18 LITE Macro Assembler V1.38 build -256452561 
                                                                                               Sun Feb 28 17:15:03 2021

Microchip Technology Omniscient Code Generator v1.38 (Free mode) build 201607010351
     1                           	processor	18F45K20
     2                           	fnconf	rparam,??,?,0
     3                           	opt	pw 120
     4                           	opt	lm
     5                           	psect	nvCOMRAM,global,class=COMRAM,space=1,delta=1
     6                           	psect	cinit,global,reloc=2,class=CODE,delta=1
     7                           	psect	bssCOMRAM,global,class=COMRAM,space=1,delta=1
     8                           	psect	cstackCOMRAM,global,class=COMRAM,space=1,delta=1
     9                           	psect	text0,global,reloc=2,class=CODE,delta=1
    10                           	psect	text1,global,reloc=2,class=CODE,delta=1
    11                           	psect	text2,global,reloc=2,class=CODE,delta=1
    12                           	psect	text3,global,reloc=2,class=CODE,delta=1
    13                           	psect	text4,global,reloc=2,class=CODE,delta=1
    14                           	psect	text5,global,reloc=2,class=CODE,delta=1
    15                           	psect	text6,global,reloc=2,class=CODE,delta=1
    16                           	psect	text7,global,reloc=2,class=CODE,delta=1
    17                           	psect	text8,global,reloc=2,class=CODE,delta=1
    18                           	psect	text9,global,reloc=2,class=CODE,delta=1
    19                           	psect	text10,global,reloc=2,class=CODE,delta=1
    20                           	psect	text11,global,reloc=2,class=CODE,delta=1
    21                           	psect	text12,global,reloc=2,class=CODE,delta=1
    22                           	psect	text13,global,reloc=2,class=CODE,delta=1
    23                           	psect	text14,global,reloc=2,class=CODE,delta=1
    24                           	psect	text15,global,reloc=2,class=CODE,delta=1
    25                           	psect	text16,global,reloc=2,class=CODE,delta=1
    26                           	psect	text17,global,reloc=2,class=CODE,delta=1
    27                           	psect	text18,global,reloc=2,class=CODE,delta=1
    28                           	psect	intcodelo,global,reloc=2,class=CODE,delta=1
    29                           	psect	intcode,global,reloc=2,class=CODE,delta=1
    30                           	psect	intcode_body,global,reloc=2,class=CODE,delta=1
    31                           	psect	intsave_regs,global,class=BIGRAM,space=1,delta=1
    32                           	psect	rparam,global,class=COMRAM,space=1,delta=1
    33                           	psect	temp,global,ovrld,common,class=COMRAM,space=1,delta=1
    34  0000                     
    35                           	psect	nvCOMRAM
    36  000035                     __pnvCOMRAM:
    37                           	opt stack 0
    38  000035                     _anteriorRB4:
    39                           	opt stack 0
    40  000035                     	ds	2
    41  000037                     _anteriorRB5:
    42                           	opt stack 0
    43  000037                     	ds	2
    44  000039                     _teclaPulsada:
    45                           	opt stack 0
    46  000039                     	ds	2
    47  0000                     _ADRES	set	4035
    48  0000                     _ADCON0bits	set	4034
    49  0000                     _ADCON2bits	set	4032
    50  0000                     _ADRESH	set	4036
    51  0000                     _ADRESL	set	4035
    52  0000                     _ANSELH	set	3967
    53  0000                     _ANSELbits	set	3966
    54  0000                     _CCP1CONbits	set	4029
    55  0000                     _CCP2CONbits	set	4026
    56  0000                     _CCPR1H	set	4031
    57  0000                     _CCPR1L	set	4030
    58  0000                     _CCPR2H	set	4028
    59  0000                     _CCPR2L	set	4027
    60  0000                     _INTCON2bits	set	4081
    61  0000                     _INTCON3bits	set	4080
    62  0000                     _INTCONbits	set	4082
    63  0000                     _IOCBbits	set	3965
    64  0000                     _IPR1bits	set	3999
    65  0000                     _LATBbits	set	3978
    66  0000                     _LATD	set	3980
    67  0000                     _PIE1bits	set	3997
    68  0000                     _PIR1bits	set	3998
    69  0000                     _PORTBbits	set	3969
    70  0000                     _PORTCbits	set	3970
    71  0000                     _PORTD	set	3971
    72  0000                     _PORTDbits	set	3971
    73  0000                     _PR2	set	4043
    74  0000                     _RCONbits	set	4048
    75  0000                     _T2CONbits	set	4042
    76  0000                     _TMR2	set	4044
    77  0000                     _TRISAbits	set	3986
    78  0000                     _TRISBbits	set	3987
    79  0000                     _TRISCbits	set	3988
    80  0000                     _TRISD	set	3989
    81                           
    82                           ; #config settings
    83  0000                     
    84                           	psect	cinit
    85  00047E                     __pcinit:
    86                           	opt stack 0
    87  00047E                     start_initialization:
    88                           	opt stack 0
    89  00047E                     __initialization:
    90                           	opt stack 0
    91                           
    92                           ; Clear objects allocated to COMRAM (8 bytes)
    93  00047E  EE00  F02D         	lfsr	0,__pbssCOMRAM
    94  000482  0E08               	movlw	8
    95  000484                     clear_0:
    96  000484  6AEE               	clrf	postinc0,c
    97  000486  06E8               	decf	wreg,f,c
    98  000488  E1FD               	bnz	clear_0
    99  00048A                     end_of_initialization:
   100                           	opt stack 0
   101  00048A                     __end_of__initialization:
   102                           	opt stack 0
   103  00048A  903B               	bcf	int$flags,0,c	;clear compiler interrupt flag (level 1)
   104  00048C  923B               	bcf	int$flags,1,c	;clear compiler interrupt flag (level 2)
   105  00048E  0E00               	movlw	low (__Lmediumconst shr (0+16))
   106  000490  6EF8               	movwf	tblptru,c
   107  000492  0100               	movlb	0
   108  000494  EF00  F002         	goto	_main	;jump to C main() function
   109                           tblptru	equ	0xFF8
   110                           postinc0	equ	0xFEE
   111                           wreg	equ	0xFE8
   112                           
   113                           	psect	bssCOMRAM
   114  00002D                     __pbssCOMRAM:
   115                           	opt stack 0
   116  00002D                     _actual:
   117                           	opt stack 0
   118  00002D                     	ds	2
   119  00002F                     _turnoTecla:
   120                           	opt stack 0
   121  00002F                     	ds	2
   122  000031                     _ultimaLectura0:
   123                           	opt stack 0
   124  000031                     	ds	2
   125  000033                     _ultimaLectura1:
   126                           	opt stack 0
   127  000033                     	ds	2
   128                           tblptru	equ	0xFF8
   129                           postinc0	equ	0xFEE
   130                           wreg	equ	0xFE8
   131                           
   132                           	psect	cstackCOMRAM
   133  000001                     __pcstackCOMRAM:
   134                           	opt stack 0
   135  000001                     ??_interrupcionAlta:
   136  000001                     
   137                           ; 2 bytes @ 0x0
   138  000001                     	ds	14
   139  00000F                     ??_interrupcionBaixa:
   140                           
   141                           ; 1 bytes @ 0xE
   142  00000F                     	ds	21
   143  000024                     ??_teclado:
   144  000024                     
   145                           ; 1 bytes @ 0x23
   146  000024                     	ds	2
   147  000026                     teclado@muestraVariable:
   148                           	opt stack 0
   149                           
   150                           ; 2 bytes @ 0x25
   151  000026                     	ds	2
   152  000028                     ??_main:
   153                           
   154                           ; 1 bytes @ 0x27
   155  000028                     	ds	1
   156  000029                     main@var1:
   157                           	opt stack 0
   158                           
   159                           ; 2 bytes @ 0x28
   160  000029                     	ds	2
   161  00002B                     main@var2:
   162                           	opt stack 0
   163                           
   164                           ; 2 bytes @ 0x2A
   165  00002B                     	ds	2
   166                           tblptru	equ	0xFF8
   167                           postinc0	equ	0xFEE
   168                           wreg	equ	0xFE8
   169                           
   170 ;;
   171 ;;Main: autosize = 0, tempsize = 1, incstack = 0, save=0
   172 ;;
   173 ;; *************** function _main *****************
   174 ;; Defined at:
   175 ;;		line 115 in file "main.c"
   176 ;; Parameters:    Size  Location     Type
   177 ;;		None
   178 ;; Auto vars:     Size  Location     Type
   179 ;;  var2            2   42[COMRAM] short 
   180 ;;  var1            2   40[COMRAM] short 
   181 ;; Return value:  Size  Location     Type
   182 ;;                  1    wreg      void 
   183 ;; Registers used:
   184 ;;		wreg, status,2, status,0, cstack
   185 ;; Tracked objects:
   186 ;;		On entry : 0/0
   187 ;;		On exit  : 0/0
   188 ;;		Unchanged: 0/0
   189 ;; Data sizes:     COMRAM   BANK0   BANK1   BANK2   BANK3   BANK4   BANK5
   190 ;;      Params:         0       0       0       0       0       0       0
   191 ;;      Locals:         4       0       0       0       0       0       0
   192 ;;      Temps:          1       0       0       0       0       0       0
   193 ;;      Totals:         5       0       0       0       0       0       0
   194 ;;Total ram usage:        5 bytes
   195 ;; Hardware stack levels required when called:    4
   196 ;; This function calls:
   197 ;;		_inicializaManipuladorMagnetico
   198 ;;		_teclado
   199 ;; This function is called by:
   200 ;;		Startup code after reset
   201 ;; This function uses a non-reentrant model
   202 ;;
   203                           
   204                           	psect	text0
   205  000400                     __ptext0:
   206                           	opt stack 0
   207  000400                     _main:
   208                           	opt stack 27
   209                           
   210                           ;main.c: 117: short var1;
   211                           ;main.c: 118: short var2;
   212                           ;main.c: 119: inicializaManipuladorMagnetico();
   213                           
   214                           ;incstack = 0
   215  000400  ECDC  F001         	call	_inicializaManipuladorMagnetico	;wreg free
   216                           
   217                           ;main.c: 120: anteriorRB4 = PORTBbits.RB4;
   218  000404  A881               	btfss	3969,4,c	;volatile
   219  000406  D003               	goto	u380
   220  000408  6A28               	clrf	??_main& (0+255),c
   221  00040A  2A28               	incf	??_main& (0+255),f,c
   222  00040C  D001               	goto	u388
   223  00040E                     u380:
   224  00040E  6A28               	clrf	??_main& (0+255),c
   225  000410                     u388:
   226  000410  5028               	movf	??_main,w,c
   227  000412  6E35               	movwf	_anteriorRB4,c
   228  000414  6A36               	clrf	_anteriorRB4+1,c
   229                           
   230                           ;main.c: 121: anteriorRB5 = PORTBbits.RB5;
   231  000416  AA81               	btfss	3969,5,c	;volatile
   232  000418  D003               	goto	u390
   233  00041A  6A28               	clrf	??_main& (0+255),c
   234  00041C  2A28               	incf	??_main& (0+255),f,c
   235  00041E  D001               	goto	u398
   236  000420                     u390:
   237  000420  6A28               	clrf	??_main& (0+255),c
   238  000422                     u398:
   239  000422  5028               	movf	??_main,w,c
   240  000424  6E37               	movwf	_anteriorRB5,c
   241  000426  6A38               	clrf	_anteriorRB5+1,c
   242  000428                     l1050:
   243                           
   244                           ;main.c: 123: {
   245                           ;main.c: 124: teclado();
   246  000428  ECEA  F000         	call	_teclado	;wreg free
   247                           
   248                           ;main.c: 125: var1=ultimaLectura0;
   249  00042C  C031  F029         	movff	_ultimaLectura0,main@var1
   250  000430  C032  F02A         	movff	_ultimaLectura0+1,main@var1+1
   251                           
   252                           ;main.c: 126: var2=ultimaLectura1;
   253  000434  C033  F02B         	movff	_ultimaLectura1,main@var2
   254  000438  C034  F02C         	movff	_ultimaLectura1+1,main@var2+1
   255                           
   256                           ;main.c: 130: __nop();
   257  00043C  F000               	nop	
   258  00043E  D7F4               	goto	l1050
   259  000440                     __end_of_main:
   260                           	opt stack 0
   261                           tblptru	equ	0xFF8
   262                           postinc0	equ	0xFEE
   263                           wreg	equ	0xFE8
   264                           
   265 ;; *************** function _teclado *****************
   266 ;; Defined at:
   267 ;;		line 63 in file "main.c"
   268 ;; Parameters:    Size  Location     Type
   269 ;;		None
   270 ;; Auto vars:     Size  Location     Type
   271 ;;  muestraVaria    2   37[COMRAM] int 
   272 ;; Return value:  Size  Location     Type
   273 ;;                  1    wreg      void 
   274 ;; Registers used:
   275 ;;		wreg, status,2, status,0
   276 ;; Tracked objects:
   277 ;;		On entry : 0/0
   278 ;;		On exit  : 0/0
   279 ;;		Unchanged: 0/0
   280 ;; Data sizes:     COMRAM   BANK0   BANK1   BANK2   BANK3   BANK4   BANK5
   281 ;;      Params:         0       0       0       0       0       0       0
   282 ;;      Locals:         2       0       0       0       0       0       0
   283 ;;      Temps:          2       0       0       0       0       0       0
   284 ;;      Totals:         4       0       0       0       0       0       0
   285 ;;Total ram usage:        4 bytes
   286 ;; Hardware stack levels used:    1
   287 ;; Hardware stack levels required when called:    2
   288 ;; This function calls:
   289 ;;		Nothing
   290 ;; This function is called by:
   291 ;;		_main
   292 ;; This function uses a non-reentrant model
   293 ;;
   294                           
   295                           	psect	text1
   296  0001D4                     __ptext1:
   297                           	opt stack 0
   298  0001D4                     _teclado:
   299                           	opt stack 28
   300                           
   301                           ;main.c: 64: int muestraVariable;
   302                           ;main.c: 65: teclaPulsada=0x10;
   303                           
   304                           ;incstack = 0
   305  0001D4  0E00               	movlw	0
   306  0001D6  6E3A               	movwf	_teclaPulsada+1,c
   307  0001D8  0E10               	movlw	16
   308  0001DA  6E39               	movwf	_teclaPulsada,c
   309                           
   310                           ;main.c: 66: switch (turnoTecla){
   311  0001DC  D061               	goto	l930
   312  0001DE                     l63:
   313                           
   314                           ;main.c: 68: if(PORTDbits.RD0) teclaPulsada=12;
   315  0001DE  A083               	btfss	3971,0,c	;volatile
   316  0001E0  D004               	goto	l874
   317  0001E2  0E00               	movlw	0
   318  0001E4  6E3A               	movwf	_teclaPulsada+1,c
   319  0001E6  0E0C               	movlw	12
   320  0001E8  6E39               	movwf	_teclaPulsada,c
   321  0001EA                     l874:
   322                           
   323                           ;main.c: 69: if(PORTDbits.RD1) teclaPulsada=13;
   324  0001EA  A283               	btfss	3971,1,c	;volatile
   325  0001EC  D004               	goto	l878
   326  0001EE  0E00               	movlw	0
   327  0001F0  6E3A               	movwf	_teclaPulsada+1,c
   328  0001F2  0E0D               	movlw	13
   329  0001F4  6E39               	movwf	_teclaPulsada,c
   330  0001F6                     l878:
   331                           
   332                           ;main.c: 70: if(PORTDbits.RD2) teclaPulsada=14;
   333  0001F6  A483               	btfss	3971,2,c	;volatile
   334  0001F8  D004               	goto	l882
   335  0001FA  0E00               	movlw	0
   336  0001FC  6E3A               	movwf	_teclaPulsada+1,c
   337  0001FE  0E0E               	movlw	14
   338  000200  6E39               	movwf	_teclaPulsada,c
   339  000202                     l882:
   340                           
   341                           ;main.c: 71: if(PORTDbits.RD3) teclaPulsada=15;
   342  000202  A683               	btfss	3971,3,c	;volatile
   343  000204  D062               	goto	l68
   344  000206  0E00               	movlw	0
   345  000208  6E3A               	movwf	_teclaPulsada+1,c
   346  00020A  0E0F               	movlw	15
   347  00020C  D047               	goto	L3
   348  00020E                     l69:
   349                           
   350                           ;main.c: 74: if(PORTDbits.RD0) teclaPulsada=0;
   351  00020E  A083               	btfss	3971,0,c	;volatile
   352  000210  D004               	goto	l888
   353  000212  0E00               	movlw	0
   354  000214  6E3A               	movwf	_teclaPulsada+1,c
   355  000216  0E00               	movlw	0
   356  000218  6E39               	movwf	_teclaPulsada,c
   357  00021A                     l888:
   358                           
   359                           ;main.c: 75: if(PORTDbits.RD1) teclaPulsada=1;
   360  00021A  A283               	btfss	3971,1,c	;volatile
   361  00021C  D004               	goto	l892
   362  00021E  0E00               	movlw	0
   363  000220  6E3A               	movwf	_teclaPulsada+1,c
   364  000222  0E01               	movlw	1
   365  000224  6E39               	movwf	_teclaPulsada,c
   366  000226                     l892:
   367                           
   368                           ;main.c: 76: if(PORTDbits.RD2) teclaPulsada=2;
   369  000226  A483               	btfss	3971,2,c	;volatile
   370  000228  D004               	goto	l896
   371  00022A  0E00               	movlw	0
   372  00022C  6E3A               	movwf	_teclaPulsada+1,c
   373  00022E  0E02               	movlw	2
   374  000230  6E39               	movwf	_teclaPulsada,c
   375  000232                     l896:
   376                           
   377                           ;main.c: 77: if(PORTDbits.RD3) teclaPulsada=3;
   378  000232  A683               	btfss	3971,3,c	;volatile
   379  000234  D04A               	goto	l68
   380  000236  0E00               	movlw	0
   381  000238  6E3A               	movwf	_teclaPulsada+1,c
   382  00023A  0E03               	movlw	3
   383  00023C  D02F               	goto	L3
   384  00023E                     l74:
   385                           
   386                           ;main.c: 80: if(PORTDbits.RD0) teclaPulsada=4;
   387  00023E  A083               	btfss	3971,0,c	;volatile
   388  000240  D004               	goto	l902
   389  000242  0E00               	movlw	0
   390  000244  6E3A               	movwf	_teclaPulsada+1,c
   391  000246  0E04               	movlw	4
   392  000248  6E39               	movwf	_teclaPulsada,c
   393  00024A                     l902:
   394                           
   395                           ;main.c: 81: if(PORTDbits.RD1) teclaPulsada=5;
   396  00024A  A283               	btfss	3971,1,c	;volatile
   397  00024C  D004               	goto	l906
   398  00024E  0E00               	movlw	0
   399  000250  6E3A               	movwf	_teclaPulsada+1,c
   400  000252  0E05               	movlw	5
   401  000254  6E39               	movwf	_teclaPulsada,c
   402  000256                     l906:
   403                           
   404                           ;main.c: 82: if(PORTDbits.RD2) teclaPulsada=6;
   405  000256  A483               	btfss	3971,2,c	;volatile
   406  000258  D004               	goto	l910
   407  00025A  0E00               	movlw	0
   408  00025C  6E3A               	movwf	_teclaPulsada+1,c
   409  00025E  0E06               	movlw	6
   410  000260  6E39               	movwf	_teclaPulsada,c
   411  000262                     l910:
   412                           
   413                           ;main.c: 83: if(PORTDbits.RD3) teclaPulsada=7;
   414  000262  A683               	btfss	3971,3,c	;volatile
   415  000264  D032               	goto	l68
   416  000266  0E00               	movlw	0
   417  000268  6E3A               	movwf	_teclaPulsada+1,c
   418  00026A  0E07               	movlw	7
   419  00026C  D017               	goto	L3
   420  00026E                     l79:
   421                           
   422                           ;main.c: 86: if(PORTDbits.RD0) teclaPulsada=8;
   423  00026E  A083               	btfss	3971,0,c	;volatile
   424  000270  D004               	goto	l916
   425  000272  0E00               	movlw	0
   426  000274  6E3A               	movwf	_teclaPulsada+1,c
   427  000276  0E08               	movlw	8
   428  000278  6E39               	movwf	_teclaPulsada,c
   429  00027A                     l916:
   430                           
   431                           ;main.c: 87: if(PORTDbits.RD1) teclaPulsada=9;
   432  00027A  A283               	btfss	3971,1,c	;volatile
   433  00027C  D004               	goto	l920
   434  00027E  0E00               	movlw	0
   435  000280  6E3A               	movwf	_teclaPulsada+1,c
   436  000282  0E09               	movlw	9
   437  000284  6E39               	movwf	_teclaPulsada,c
   438  000286                     l920:
   439                           
   440                           ;main.c: 88: if(PORTDbits.RD2) teclaPulsada=10;
   441  000286  A483               	btfss	3971,2,c	;volatile
   442  000288  D004               	goto	l924
   443  00028A  0E00               	movlw	0
   444  00028C  6E3A               	movwf	_teclaPulsada+1,c
   445  00028E  0E0A               	movlw	10
   446  000290  6E39               	movwf	_teclaPulsada,c
   447  000292                     l924:
   448                           
   449                           ;main.c: 89: if(PORTDbits.RD3) teclaPulsada=11;
   450  000292  A683               	btfss	3971,3,c	;volatile
   451  000294  D01A               	goto	l68
   452  000296  0E00               	movlw	0
   453  000298  6E3A               	movwf	_teclaPulsada+1,c
   454  00029A  0E0B               	movlw	11
   455  00029C                     L3:
   456  00029C  6E39               	movwf	_teclaPulsada,c
   457                           
   458                           ;main.c: 91: }
   459                           
   460                           ;main.c: 90: break;
   461  00029E  D015               	goto	l68
   462  0002A0                     l930:
   463  0002A0  C02F  F024         	movff	_turnoTecla,??_teclado
   464  0002A4  C030  F025         	movff	_turnoTecla+1,??_teclado+1
   465                           
   466                           ; Switch on 2 bytes has been partitioned into a top level switch of size 1, and 1 sub-sw
      +                          itches
   467                           ; Switch size 1, requested type "space"
   468                           ; Number of cases is 1, Range of values is 0 to 0
   469                           ; switch strategies available:
   470                           ; Name         Instructions Cycles
   471                           ; simple_byte            4     3 (average)
   472                           ;	Chosen strategy is simple_byte
   473  0002A8  5025               	movf	??_teclado+1,w,c
   474  0002AA  0A00               	xorlw	0	; case 0
   475  0002AC  A4D8               	btfss	status,2,c
   476  0002AE  D00D               	goto	l68
   477                           
   478                           ; Switch size 1, requested type "space"
   479                           ; Number of cases is 4, Range of values is 0 to 3
   480                           ; switch strategies available:
   481                           ; Name         Instructions Cycles
   482                           ; simple_byte           13     7 (average)
   483                           ;	Chosen strategy is simple_byte
   484  0002B0  5024               	movf	??_teclado,w,c
   485  0002B2  0A00               	xorlw	0	; case 0
   486  0002B4  B4D8               	btfsc	status,2,c
   487  0002B6  D793               	goto	l63
   488  0002B8  0A01               	xorlw	1	; case 1
   489  0002BA  B4D8               	btfsc	status,2,c
   490  0002BC  D7A8               	goto	l69
   491  0002BE  0A03               	xorlw	3	; case 2
   492  0002C0  B4D8               	btfsc	status,2,c
   493  0002C2  D7BD               	goto	l74
   494  0002C4  0A01               	xorlw	1	; case 3
   495  0002C6  B4D8               	btfsc	status,2,c
   496  0002C8  D7D2               	goto	l79
   497  0002CA                     l68:
   498                           
   499                           ;main.c: 92: muestraVariable=teclaPulsada;
   500  0002CA  C039  F026         	movff	_teclaPulsada,teclado@muestraVariable
   501  0002CE  C03A  F027         	movff	_teclaPulsada+1,teclado@muestraVariable+1
   502                           
   503                           ;main.c: 93: if (teclaPulsada<0x10){
   504  0002D2  BE3A               	btfsc	_teclaPulsada+1,7,c
   505  0002D4  D005               	goto	l934
   506  0002D6  503A               	movf	_teclaPulsada+1,w,c
   507  0002D8  E104               	bnz	l936
   508  0002DA  0E10               	movlw	16
   509  0002DC  5C39               	subwf	_teclaPulsada,w,c
   510  0002DE  A0D8               	btfss	status,0,c
   511  0002E0                     l934:
   512                           
   513                           ;main.c: 94: __nop();
   514  0002E0  F000               	nop	
   515  0002E2                     l936:
   516                           
   517                           ;main.c: 95: }
   518                           ;main.c: 96: LATD = 0;
   519  0002E2  0E00               	movlw	0
   520  0002E4  6E8C               	movwf	3980,c	;volatile
   521                           
   522                           ;main.c: 97: switch (turnoTecla){
   523  0002E6  D008               	goto	l940
   524  0002E8                     l86:
   525                           
   526                           ;main.c: 99: PORTDbits.RD4 =1;
   527  0002E8  8883               	bsf	3971,4,c	;volatile
   528                           
   529                           ;main.c: 100: break;
   530  0002EA  D01B               	goto	l942
   531  0002EC                     l88:
   532                           
   533                           ;main.c: 102: PORTDbits.RD5=1;
   534  0002EC  8A83               	bsf	3971,5,c	;volatile
   535                           
   536                           ;main.c: 103: break;
   537  0002EE  D019               	goto	l942
   538  0002F0                     l89:
   539                           
   540                           ;main.c: 105: PORTDbits.RD6=1;
   541  0002F0  8C83               	bsf	3971,6,c	;volatile
   542                           
   543                           ;main.c: 106: break;
   544  0002F2  D017               	goto	l942
   545  0002F4                     l90:
   546                           
   547                           ;main.c: 108: PORTDbits.RD7=1;
   548  0002F4  8E83               	bsf	3971,7,c	;volatile
   549                           
   550                           ;main.c: 110: }
   551                           
   552                           ;main.c: 109: break;
   553  0002F6  D015               	goto	l942
   554  0002F8                     l940:
   555  0002F8  C02F  F024         	movff	_turnoTecla,??_teclado
   556  0002FC  C030  F025         	movff	_turnoTecla+1,??_teclado+1
   557                           
   558                           ; Switch on 2 bytes has been partitioned into a top level switch of size 1, and 1 sub-sw
      +                          itches
   559                           ; Switch size 1, requested type "space"
   560                           ; Number of cases is 1, Range of values is 0 to 0
   561                           ; switch strategies available:
   562                           ; Name         Instructions Cycles
   563                           ; simple_byte            4     3 (average)
   564                           ;	Chosen strategy is simple_byte
   565  000300  5025               	movf	??_teclado+1,w,c
   566  000302  0A00               	xorlw	0	; case 0
   567  000304  A4D8               	btfss	status,2,c
   568  000306  D00D               	goto	l942
   569                           
   570                           ; Switch size 1, requested type "space"
   571                           ; Number of cases is 4, Range of values is 0 to 3
   572                           ; switch strategies available:
   573                           ; Name         Instructions Cycles
   574                           ; simple_byte           13     7 (average)
   575                           ;	Chosen strategy is simple_byte
   576  000308  5024               	movf	??_teclado,w,c
   577  00030A  0A00               	xorlw	0	; case 0
   578  00030C  B4D8               	btfsc	status,2,c
   579  00030E  D7EC               	goto	l86
   580  000310  0A01               	xorlw	1	; case 1
   581  000312  B4D8               	btfsc	status,2,c
   582  000314  D7EB               	goto	l88
   583  000316  0A03               	xorlw	3	; case 2
   584  000318  B4D8               	btfsc	status,2,c
   585  00031A  D7EA               	goto	l89
   586  00031C  0A01               	xorlw	1	; case 3
   587  00031E  B4D8               	btfsc	status,2,c
   588  000320  D7E9               	goto	l90
   589  000322                     l942:
   590                           
   591                           ;main.c: 111: turnoTecla += 1;
   592  000322  4A2F               	infsnz	_turnoTecla,f,c
   593  000324  2A30               	incf	_turnoTecla+1,f,c
   594                           
   595                           ;main.c: 112: if(turnoTecla>3) turnoTecla=0;
   596  000326  BE30               	btfsc	_turnoTecla+1,7,c
   597  000328  0012               	return	
   598  00032A  5030               	movf	_turnoTecla+1,w,c
   599  00032C  E104               	bnz	u180
   600  00032E  0E04               	movlw	4
   601  000330  5C2F               	subwf	_turnoTecla,w,c
   602  000332  A0D8               	btfss	status,0,c
   603  000334  0012               	return	
   604  000336                     u180:
   605  000336  0E00               	movlw	0
   606  000338  6E30               	movwf	_turnoTecla+1,c
   607  00033A  0E00               	movlw	0
   608  00033C  6E2F               	movwf	_turnoTecla,c
   609  00033E  0012               	return	
   610  000340                     __end_of_teclado:
   611                           	opt stack 0
   612                           tblptru	equ	0xFF8
   613                           postinc0	equ	0xFEE
   614                           wreg	equ	0xFE8
   615                           status	equ	0xFD8
   616                           
   617 ;; *************** function _inicializaManipuladorMagnetico *****************
   618 ;; Defined at:
   619 ;;		line 136 in file "Configuracion.c"
   620 ;; Parameters:    Size  Location     Type
   621 ;;		None
   622 ;; Auto vars:     Size  Location     Type
   623 ;;		None
   624 ;; Return value:  Size  Location     Type
   625 ;;                  2   28[None  ] int 
   626 ;; Registers used:
   627 ;;		wreg, status,2, cstack
   628 ;; Tracked objects:
   629 ;;		On entry : 0/0
   630 ;;		On exit  : 0/0
   631 ;;		Unchanged: 0/0
   632 ;; Data sizes:     COMRAM   BANK0   BANK1   BANK2   BANK3   BANK4   BANK5
   633 ;;      Params:         0       0       0       0       0       0       0
   634 ;;      Locals:         0       0       0       0       0       0       0
   635 ;;      Temps:          0       0       0       0       0       0       0
   636 ;;      Totals:         0       0       0       0       0       0       0
   637 ;;Total ram usage:        0 bytes
   638 ;; Hardware stack levels used:    1
   639 ;; Hardware stack levels required when called:    3
   640 ;; This function calls:
   641 ;;		_inicializaAN0_I
   642 ;;		_inicializaAN1_I
   643 ;;		_inicializaAnalogicas
   644 ;;		_inicializaGlobalRB_I_Int
   645 ;;		_inicializaPortD_Teclado
   646 ;;		_inicializaRB0_I
   647 ;;		_inicializaRB1_I
   648 ;;		_inicializaRB2_I
   649 ;;		_inicializaRB4_5_O
   650 ;;		_inicializaRC0_O
   651 ;;		_inicializaRC1_PWM
   652 ;;		_inicializaRC2_PWM
   653 ;;		_inicializaRC3_O
   654 ;;		_inicializaRC4_O
   655 ;;		_inicializaRC5_O
   656 ;;		_inicializaTimer2_PWM
   657 ;; This function is called by:
   658 ;;		_main
   659 ;; This function uses a non-reentrant model
   660 ;;
   661                           
   662                           	psect	text2
   663  0003B8                     __ptext2:
   664                           	opt stack 0
   665  0003B8                     _inicializaManipuladorMagnetico:
   666                           	opt stack 27
   667                           
   668                           ;Configuracion.c: 137: inicializaGlobalRB_I_Int();
   669                           
   670                           ;incstack = 0
   671  0003B8  EC6B  F002         	call	_inicializaGlobalRB_I_Int	;wreg free
   672                           
   673                           ;Configuracion.c: 138: inicializaRB0_I();
   674  0003BC  EC7B  F002         	call	_inicializaRB0_I	;wreg free
   675                           
   676                           ;Configuracion.c: 139: inicializaRB1_I();
   677  0003C0  EC76  F002         	call	_inicializaRB1_I	;wreg free
   678                           
   679                           ;Configuracion.c: 140: inicializaRB2_I();
   680  0003C4  EC71  F002         	call	_inicializaRB2_I	;wreg free
   681                           
   682                           ;Configuracion.c: 141: inicializaRC1_PWM();
   683  0003C8  EC4C  F002         	call	_inicializaRC1_PWM	;wreg free
   684                           
   685                           ;Configuracion.c: 142: inicializaRC2_PWM();
   686  0003CC  EC31  F002         	call	_inicializaRC2_PWM	;wreg free
   687                           
   688                           ;Configuracion.c: 143: inicializaRC3_O();
   689  0003D0  EC8B  F002         	call	_inicializaRC3_O	;wreg free
   690                           
   691                           ;Configuracion.c: 144: inicializaRC4_O();
   692  0003D4  EC88  F002         	call	_inicializaRC4_O	;wreg free
   693                           
   694                           ;Configuracion.c: 145: inicializaAnalogicas();
   695  0003D8  EC20  F002         	call	_inicializaAnalogicas	;wreg free
   696                           
   697                           ;Configuracion.c: 146: inicializaAN0_I();
   698  0003DC  EC94  F002         	call	_inicializaAN0_I	;wreg free
   699                           
   700                           ;Configuracion.c: 147: inicializaAN1_I();
   701  0003E0  EC91  F002         	call	_inicializaAN1_I	;wreg free
   702                           
   703                           ;Configuracion.c: 148: inicializaTimer2_PWM();
   704  0003E4  EC58  F002         	call	_inicializaTimer2_PWM	;wreg free
   705                           
   706                           ;Configuracion.c: 149: inicializaRC0_O();
   707  0003E8  EC8E  F002         	call	_inicializaRC0_O	;wreg free
   708                           
   709                           ;Configuracion.c: 150: inicializaRC5_O();
   710  0003EC  EC85  F002         	call	_inicializaRC5_O	;wreg free
   711                           
   712                           ;Configuracion.c: 151: inicializaRC0_O();
   713  0003F0  EC8E  F002         	call	_inicializaRC0_O	;wreg free
   714                           
   715                           ;Configuracion.c: 152: inicializaRB4_5_O();
   716  0003F4  EC63  F002         	call	_inicializaRB4_5_O	;wreg free
   717                           
   718                           ;Configuracion.c: 153: inicializaPortD_Teclado();
   719  0003F8  EC80  F002         	call	_inicializaPortD_Teclado	;wreg free
   720                           
   721                           ;Configuracion.c: 154: ADCON0bits.GO = 1;
   722  0003FC  82C2               	bsf	4034,1,c	;volatile
   723  0003FE  0012               	return		;funcret
   724  000400                     __end_of_inicializaManipuladorMagnetico:
   725                           	opt stack 0
   726                           tblptru	equ	0xFF8
   727                           postinc0	equ	0xFEE
   728                           wreg	equ	0xFE8
   729                           status	equ	0xFD8
   730                           
   731 ;; *************** function _inicializaTimer2_PWM *****************
   732 ;; Defined at:
   733 ;;		line 72 in file "Configuracion.c"
   734 ;; Parameters:    Size  Location     Type
   735 ;;		None
   736 ;; Auto vars:     Size  Location     Type
   737 ;;		None
   738 ;; Return value:  Size  Location     Type
   739 ;;                  1    wreg      void 
   740 ;; Registers used:
   741 ;;		wreg, status,2
   742 ;; Tracked objects:
   743 ;;		On entry : 0/0
   744 ;;		On exit  : 0/0
   745 ;;		Unchanged: 0/0
   746 ;; Data sizes:     COMRAM   BANK0   BANK1   BANK2   BANK3   BANK4   BANK5
   747 ;;      Params:         0       0       0       0       0       0       0
   748 ;;      Locals:         0       0       0       0       0       0       0
   749 ;;      Temps:          0       0       0       0       0       0       0
   750 ;;      Totals:         0       0       0       0       0       0       0
   751 ;;Total ram usage:        0 bytes
   752 ;; Hardware stack levels used:    1
   753 ;; Hardware stack levels required when called:    2
   754 ;; This function calls:
   755 ;;		Nothing
   756 ;; This function is called by:
   757 ;;		_inicializaManipuladorMagnetico
   758 ;; This function uses a non-reentrant model
   759 ;;
   760                           
   761                           	psect	text3
   762  0004B0                     __ptext3:
   763                           	opt stack 0
   764  0004B0                     _inicializaTimer2_PWM:
   765                           	opt stack 27
   766                           
   767                           ;Configuracion.c: 73: PIE1bits.TMR2IE = 0;
   768                           
   769                           ;incstack = 0
   770  0004B0  929D               	bcf	3997,1,c	;volatile
   771                           
   772                           ;Configuracion.c: 79: PR2 = 249;
   773  0004B2  0EF9               	movlw	249
   774  0004B4  6ECB               	movwf	4043,c	;volatile
   775                           
   776                           ;Configuracion.c: 80: TMR2 = 0;
   777  0004B6  0E00               	movlw	0
   778  0004B8  6ECC               	movwf	4044,c	;volatile
   779                           
   780                           ;Configuracion.c: 81: T2CONbits.T2CKPS = 0b01;
   781  0004BA  50CA               	movf	4042,w,c	;volatile
   782  0004BC  0BFC               	andlw	-4
   783  0004BE  0901               	iorlw	1
   784  0004C0  6ECA               	movwf	4042,c	;volatile
   785                           
   786                           ;Configuracion.c: 82: T2CONbits.TMR2ON = 1;
   787  0004C2  84CA               	bsf	4042,2,c	;volatile
   788  0004C4  0012               	return		;funcret
   789  0004C6                     __end_of_inicializaTimer2_PWM:
   790                           	opt stack 0
   791                           tblptru	equ	0xFF8
   792                           postinc0	equ	0xFEE
   793                           wreg	equ	0xFE8
   794                           status	equ	0xFD8
   795                           
   796 ;; *************** function _inicializaRC5_O *****************
   797 ;; Defined at:
   798 ;;		line 119 in file "Configuracion.c"
   799 ;; Parameters:    Size  Location     Type
   800 ;;		None
   801 ;; Auto vars:     Size  Location     Type
   802 ;;		None
   803 ;; Return value:  Size  Location     Type
   804 ;;                  1    wreg      void 
   805 ;; Registers used:
   806 ;;		None
   807 ;; Tracked objects:
   808 ;;		On entry : 0/0
   809 ;;		On exit  : 0/0
   810 ;;		Unchanged: 0/0
   811 ;; Data sizes:     COMRAM   BANK0   BANK1   BANK2   BANK3   BANK4   BANK5
   812 ;;      Params:         0       0       0       0       0       0       0
   813 ;;      Locals:         0       0       0       0       0       0       0
   814 ;;      Temps:          0       0       0       0       0       0       0
   815 ;;      Totals:         0       0       0       0       0       0       0
   816 ;;Total ram usage:        0 bytes
   817 ;; Hardware stack levels used:    1
   818 ;; Hardware stack levels required when called:    2
   819 ;; This function calls:
   820 ;;		Nothing
   821 ;; This function is called by:
   822 ;;		_inicializaManipuladorMagnetico
   823 ;; This function uses a non-reentrant model
   824 ;;
   825                           
   826                           	psect	text4
   827  00050A                     __ptext4:
   828                           	opt stack 0
   829  00050A                     _inicializaRC5_O:
   830                           	opt stack 27
   831                           
   832                           ;Configuracion.c: 120: TRISCbits.RC5 = 0;
   833                           
   834                           ;incstack = 0
   835  00050A  9A94               	bcf	3988,5,c	;volatile
   836                           
   837                           ;Configuracion.c: 121: PORTCbits.RC5 = 0;
   838  00050C  9A82               	bcf	3970,5,c	;volatile
   839  00050E  0012               	return		;funcret
   840  000510                     __end_of_inicializaRC5_O:
   841                           	opt stack 0
   842                           tblptru	equ	0xFF8
   843                           postinc0	equ	0xFEE
   844                           wreg	equ	0xFE8
   845                           status	equ	0xFD8
   846                           
   847 ;; *************** function _inicializaRC4_O *****************
   848 ;; Defined at:
   849 ;;		line 51 in file "Configuracion.c"
   850 ;; Parameters:    Size  Location     Type
   851 ;;		None
   852 ;; Auto vars:     Size  Location     Type
   853 ;;		None
   854 ;; Return value:  Size  Location     Type
   855 ;;                  1    wreg      void 
   856 ;; Registers used:
   857 ;;		None
   858 ;; Tracked objects:
   859 ;;		On entry : 0/0
   860 ;;		On exit  : 0/0
   861 ;;		Unchanged: 0/0
   862 ;; Data sizes:     COMRAM   BANK0   BANK1   BANK2   BANK3   BANK4   BANK5
   863 ;;      Params:         0       0       0       0       0       0       0
   864 ;;      Locals:         0       0       0       0       0       0       0
   865 ;;      Temps:          0       0       0       0       0       0       0
   866 ;;      Totals:         0       0       0       0       0       0       0
   867 ;;Total ram usage:        0 bytes
   868 ;; Hardware stack levels used:    1
   869 ;; Hardware stack levels required when called:    2
   870 ;; This function calls:
   871 ;;		Nothing
   872 ;; This function is called by:
   873 ;;		_inicializaManipuladorMagnetico
   874 ;; This function uses a non-reentrant model
   875 ;;
   876                           
   877                           	psect	text5
   878  000510                     __ptext5:
   879                           	opt stack 0
   880  000510                     _inicializaRC4_O:
   881                           	opt stack 27
   882                           
   883                           ;Configuracion.c: 52: TRISCbits.RC4 = 0;
   884                           
   885                           ;incstack = 0
   886  000510  9894               	bcf	3988,4,c	;volatile
   887                           
   888                           ;Configuracion.c: 53: PORTCbits.RC4 = 0;
   889  000512  9882               	bcf	3970,4,c	;volatile
   890  000514  0012               	return		;funcret
   891  000516                     __end_of_inicializaRC4_O:
   892                           	opt stack 0
   893                           tblptru	equ	0xFF8
   894                           postinc0	equ	0xFEE
   895                           wreg	equ	0xFE8
   896                           status	equ	0xFD8
   897                           
   898 ;; *************** function _inicializaRC3_O *****************
   899 ;; Defined at:
   900 ;;		line 47 in file "Configuracion.c"
   901 ;; Parameters:    Size  Location     Type
   902 ;;		None
   903 ;; Auto vars:     Size  Location     Type
   904 ;;		None
   905 ;; Return value:  Size  Location     Type
   906 ;;                  1    wreg      void 
   907 ;; Registers used:
   908 ;;		None
   909 ;; Tracked objects:
   910 ;;		On entry : 0/0
   911 ;;		On exit  : 0/0
   912 ;;		Unchanged: 0/0
   913 ;; Data sizes:     COMRAM   BANK0   BANK1   BANK2   BANK3   BANK4   BANK5
   914 ;;      Params:         0       0       0       0       0       0       0
   915 ;;      Locals:         0       0       0       0       0       0       0
   916 ;;      Temps:          0       0       0       0       0       0       0
   917 ;;      Totals:         0       0       0       0       0       0       0
   918 ;;Total ram usage:        0 bytes
   919 ;; Hardware stack levels used:    1
   920 ;; Hardware stack levels required when called:    2
   921 ;; This function calls:
   922 ;;		Nothing
   923 ;; This function is called by:
   924 ;;		_inicializaManipuladorMagnetico
   925 ;; This function uses a non-reentrant model
   926 ;;
   927                           
   928                           	psect	text6
   929  000516                     __ptext6:
   930                           	opt stack 0
   931  000516                     _inicializaRC3_O:
   932                           	opt stack 27
   933                           
   934                           ;Configuracion.c: 48: TRISCbits.RC3 = 0;
   935                           
   936                           ;incstack = 0
   937  000516  9694               	bcf	3988,3,c	;volatile
   938                           
   939                           ;Configuracion.c: 49: PORTCbits.RC3 = 0;
   940  000518  9682               	bcf	3970,3,c	;volatile
   941  00051A  0012               	return		;funcret
   942  00051C                     __end_of_inicializaRC3_O:
   943                           	opt stack 0
   944                           tblptru	equ	0xFF8
   945                           postinc0	equ	0xFEE
   946                           wreg	equ	0xFE8
   947                           status	equ	0xFD8
   948                           
   949 ;; *************** function _inicializaRC2_PWM *****************
   950 ;; Defined at:
   951 ;;		line 63 in file "Configuracion.c"
   952 ;; Parameters:    Size  Location     Type
   953 ;;		None
   954 ;; Auto vars:     Size  Location     Type
   955 ;;		None
   956 ;; Return value:  Size  Location     Type
   957 ;;                  1    wreg      void 
   958 ;; Registers used:
   959 ;;		wreg, status,2
   960 ;; Tracked objects:
   961 ;;		On entry : 0/0
   962 ;;		On exit  : 0/0
   963 ;;		Unchanged: 0/0
   964 ;; Data sizes:     COMRAM   BANK0   BANK1   BANK2   BANK3   BANK4   BANK5
   965 ;;      Params:         0       0       0       0       0       0       0
   966 ;;      Locals:         0       0       0       0       0       0       0
   967 ;;      Temps:          0       0       0       0       0       0       0
   968 ;;      Totals:         0       0       0       0       0       0       0
   969 ;;Total ram usage:        0 bytes
   970 ;; Hardware stack levels used:    1
   971 ;; Hardware stack levels required when called:    2
   972 ;; This function calls:
   973 ;;		Nothing
   974 ;; This function is called by:
   975 ;;		_inicializaManipuladorMagnetico
   976 ;; This function uses a non-reentrant model
   977 ;;
   978                           
   979                           	psect	text7
   980  000462                     __ptext7:
   981                           	opt stack 0
   982  000462                     _inicializaRC2_PWM:
   983                           	opt stack 27
   984                           
   985                           ;Configuracion.c: 64: TRISCbits.RC2 = 0;
   986                           
   987                           ;incstack = 0
   988  000462  9494               	bcf	3988,2,c	;volatile
   989                           
   990                           ;Configuracion.c: 65: CCP1CONbits.P1M = 0b00;
   991  000464  0E3F               	movlw	-193
   992  000466  16BD               	andwf	4029,f,c	;volatile
   993                           
   994                           ;Configuracion.c: 66: CCP1CONbits.CCP1M = 0b1100;
   995  000468  50BD               	movf	4029,w,c	;volatile
   996  00046A  0BF0               	andlw	-16
   997  00046C  090C               	iorlw	12
   998  00046E  6EBD               	movwf	4029,c	;volatile
   999                           
  1000                           ;Configuracion.c: 67: CCP1CONbits.DC1B = 0b00;
  1001  000470  0ECF               	movlw	-49
  1002  000472  16BD               	andwf	4029,f,c	;volatile
  1003                           
  1004                           ;Configuracion.c: 68: CCPR1L = 0;
  1005  000474  0E00               	movlw	0
  1006  000476  6EBE               	movwf	4030,c	;volatile
  1007                           
  1008                           ;Configuracion.c: 69: CCPR1H = 0;
  1009  000478  0E00               	movlw	0
  1010  00047A  6EBF               	movwf	4031,c	;volatile
  1011  00047C  0012               	return		;funcret
  1012  00047E                     __end_of_inicializaRC2_PWM:
  1013                           	opt stack 0
  1014                           tblptru	equ	0xFF8
  1015                           postinc0	equ	0xFEE
  1016                           wreg	equ	0xFE8
  1017                           status	equ	0xFD8
  1018                           
  1019 ;; *************** function _inicializaRC1_PWM *****************
  1020 ;; Defined at:
  1021 ;;		line 56 in file "Configuracion.c"
  1022 ;; Parameters:    Size  Location     Type
  1023 ;;		None
  1024 ;; Auto vars:     Size  Location     Type
  1025 ;;		None
  1026 ;; Return value:  Size  Location     Type
  1027 ;;                  1    wreg      void 
  1028 ;; Registers used:
  1029 ;;		wreg, status,2
  1030 ;; Tracked objects:
  1031 ;;		On entry : 0/0
  1032 ;;		On exit  : 0/0
  1033 ;;		Unchanged: 0/0
  1034 ;; Data sizes:     COMRAM   BANK0   BANK1   BANK2   BANK3   BANK4   BANK5
  1035 ;;      Params:         0       0       0       0       0       0       0
  1036 ;;      Locals:         0       0       0       0       0       0       0
  1037 ;;      Temps:          0       0       0       0       0       0       0
  1038 ;;      Totals:         0       0       0       0       0       0       0
  1039 ;;Total ram usage:        0 bytes
  1040 ;; Hardware stack levels used:    1
  1041 ;; Hardware stack levels required when called:    2
  1042 ;; This function calls:
  1043 ;;		Nothing
  1044 ;; This function is called by:
  1045 ;;		_inicializaManipuladorMagnetico
  1046 ;; This function uses a non-reentrant model
  1047 ;;
  1048                           
  1049                           	psect	text8
  1050  000498                     __ptext8:
  1051                           	opt stack 0
  1052  000498                     _inicializaRC1_PWM:
  1053                           	opt stack 27
  1054                           
  1055                           ;Configuracion.c: 57: TRISCbits.RC1 = 0;
  1056                           
  1057                           ;incstack = 0
  1058  000498  9294               	bcf	3988,1,c	;volatile
  1059                           
  1060                           ;Configuracion.c: 58: CCP2CONbits.CCP2M = 0b1100;
  1061  00049A  50BA               	movf	4026,w,c	;volatile
  1062  00049C  0BF0               	andlw	-16
  1063  00049E  090C               	iorlw	12
  1064  0004A0  6EBA               	movwf	4026,c	;volatile
  1065                           
  1066                           ;Configuracion.c: 59: CCP2CONbits.DC2B = 0b00;
  1067  0004A2  0ECF               	movlw	-49
  1068  0004A4  16BA               	andwf	4026,f,c	;volatile
  1069                           
  1070                           ;Configuracion.c: 60: CCPR2L = 0;
  1071  0004A6  0E00               	movlw	0
  1072  0004A8  6EBB               	movwf	4027,c	;volatile
  1073                           
  1074                           ;Configuracion.c: 61: CCPR2H = 0;
  1075  0004AA  0E00               	movlw	0
  1076  0004AC  6EBC               	movwf	4028,c	;volatile
  1077  0004AE  0012               	return		;funcret
  1078  0004B0                     __end_of_inicializaRC1_PWM:
  1079                           	opt stack 0
  1080                           tblptru	equ	0xFF8
  1081                           postinc0	equ	0xFEE
  1082                           wreg	equ	0xFE8
  1083                           status	equ	0xFD8
  1084                           
  1085 ;; *************** function _inicializaRC0_O *****************
  1086 ;; Defined at:
  1087 ;;		line 115 in file "Configuracion.c"
  1088 ;; Parameters:    Size  Location     Type
  1089 ;;		None
  1090 ;; Auto vars:     Size  Location     Type
  1091 ;;		None
  1092 ;; Return value:  Size  Location     Type
  1093 ;;                  1    wreg      void 
  1094 ;; Registers used:
  1095 ;;		None
  1096 ;; Tracked objects:
  1097 ;;		On entry : 0/0
  1098 ;;		On exit  : 0/0
  1099 ;;		Unchanged: 0/0
  1100 ;; Data sizes:     COMRAM   BANK0   BANK1   BANK2   BANK3   BANK4   BANK5
  1101 ;;      Params:         0       0       0       0       0       0       0
  1102 ;;      Locals:         0       0       0       0       0       0       0
  1103 ;;      Temps:          0       0       0       0       0       0       0
  1104 ;;      Totals:         0       0       0       0       0       0       0
  1105 ;;Total ram usage:        0 bytes
  1106 ;; Hardware stack levels used:    1
  1107 ;; Hardware stack levels required when called:    2
  1108 ;; This function calls:
  1109 ;;		Nothing
  1110 ;; This function is called by:
  1111 ;;		_inicializaManipuladorMagnetico
  1112 ;; This function uses a non-reentrant model
  1113 ;;
  1114                           
  1115                           	psect	text9
  1116  00051C                     __ptext9:
  1117                           	opt stack 0
  1118  00051C                     _inicializaRC0_O:
  1119                           	opt stack 27
  1120                           
  1121                           ;Configuracion.c: 116: TRISCbits.RC0 = 0;
  1122                           
  1123                           ;incstack = 0
  1124  00051C  9094               	bcf	3988,0,c	;volatile
  1125                           
  1126                           ;Configuracion.c: 117: PORTCbits.RC0 = 0;
  1127  00051E  9082               	bcf	3970,0,c	;volatile
  1128  000520  0012               	return		;funcret
  1129  000522                     __end_of_inicializaRC0_O:
  1130                           	opt stack 0
  1131                           tblptru	equ	0xFF8
  1132                           postinc0	equ	0xFEE
  1133                           wreg	equ	0xFE8
  1134                           status	equ	0xFD8
  1135                           
  1136 ;; *************** function _inicializaRB4_5_O *****************
  1137 ;; Defined at:
  1138 ;;		line 35 in file "Configuracion.c"
  1139 ;; Parameters:    Size  Location     Type
  1140 ;;		None
  1141 ;; Auto vars:     Size  Location     Type
  1142 ;;		None
  1143 ;; Return value:  Size  Location     Type
  1144 ;;                  1    wreg      void 
  1145 ;; Registers used:
  1146 ;;		None
  1147 ;; Tracked objects:
  1148 ;;		On entry : 0/0
  1149 ;;		On exit  : 0/0
  1150 ;;		Unchanged: 0/0
  1151 ;; Data sizes:     COMRAM   BANK0   BANK1   BANK2   BANK3   BANK4   BANK5
  1152 ;;      Params:         0       0       0       0       0       0       0
  1153 ;;      Locals:         0       0       0       0       0       0       0
  1154 ;;      Temps:          0       0       0       0       0       0       0
  1155 ;;      Totals:         0       0       0       0       0       0       0
  1156 ;;Total ram usage:        0 bytes
  1157 ;; Hardware stack levels used:    1
  1158 ;; Hardware stack levels required when called:    2
  1159 ;; This function calls:
  1160 ;;		Nothing
  1161 ;; This function is called by:
  1162 ;;		_inicializaManipuladorMagnetico
  1163 ;; This function uses a non-reentrant model
  1164 ;;
  1165                           
  1166                           	psect	text10
  1167  0004C6                     __ptext10:
  1168                           	opt stack 0
  1169  0004C6                     _inicializaRB4_5_O:
  1170                           	opt stack 27
  1171                           
  1172                           ;Configuracion.c: 36: TRISBbits.RB4 = 1;
  1173                           
  1174                           ;incstack = 0
  1175  0004C6  8893               	bsf	3987,4,c	;volatile
  1176                           
  1177                           ;Configuracion.c: 37: TRISBbits.RB5 = 1;
  1178  0004C8  8A93               	bsf	3987,5,c	;volatile
  1179                           
  1180                           ;Configuracion.c: 39: INTCONbits.RBIE = 1;
  1181  0004CA  86F2               	bsf	intcon,3,c	;volatile
  1182                           
  1183                           ;Configuracion.c: 40: INTCONbits.RBIF = 0;
  1184  0004CC  90F2               	bcf	intcon,0,c	;volatile
  1185                           
  1186                           ;Configuracion.c: 42: INTCON2bits.RBIP = 0;
  1187  0004CE  90F1               	bcf	intcon2,0,c	;volatile
  1188                           
  1189                           ;Configuracion.c: 43: IOCBbits.IOCB4 =1;
  1190  0004D0  887D               	bsf	3965,4,c	;volatile
  1191                           
  1192                           ;Configuracion.c: 44: IOCBbits.IOCB5 = 1;
  1193  0004D2  8A7D               	bsf	3965,5,c	;volatile
  1194  0004D4  0012               	return		;funcret
  1195  0004D6                     __end_of_inicializaRB4_5_O:
  1196                           	opt stack 0
  1197                           tblptru	equ	0xFF8
  1198                           intcon	equ	0xFF2
  1199                           intcon2	equ	0xFF1
  1200                           postinc0	equ	0xFEE
  1201                           wreg	equ	0xFE8
  1202                           status	equ	0xFD8
  1203                           
  1204 ;; *************** function _inicializaRB2_I *****************
  1205 ;; Defined at:
  1206 ;;		line 27 in file "Configuracion.c"
  1207 ;; Parameters:    Size  Location     Type
  1208 ;;		None
  1209 ;; Auto vars:     Size  Location     Type
  1210 ;;		None
  1211 ;; Return value:  Size  Location     Type
  1212 ;;                  1    wreg      void 
  1213 ;; Registers used:
  1214 ;;		None
  1215 ;; Tracked objects:
  1216 ;;		On entry : 0/0
  1217 ;;		On exit  : 0/0
  1218 ;;		Unchanged: 0/0
  1219 ;; Data sizes:     COMRAM   BANK0   BANK1   BANK2   BANK3   BANK4   BANK5
  1220 ;;      Params:         0       0       0       0       0       0       0
  1221 ;;      Locals:         0       0       0       0       0       0       0
  1222 ;;      Temps:          0       0       0       0       0       0       0
  1223 ;;      Totals:         0       0       0       0       0       0       0
  1224 ;;Total ram usage:        0 bytes
  1225 ;; Hardware stack levels used:    1
  1226 ;; Hardware stack levels required when called:    2
  1227 ;; This function calls:
  1228 ;;		Nothing
  1229 ;; This function is called by:
  1230 ;;		_inicializaManipuladorMagnetico
  1231 ;; This function uses a non-reentrant model
  1232 ;;
  1233                           
  1234                           	psect	text11
  1235  0004E2                     __ptext11:
  1236                           	opt stack 0
  1237  0004E2                     _inicializaRB2_I:
  1238                           	opt stack 27
  1239                           
  1240                           ;Configuracion.c: 28: TRISBbits.RB2 = 1;
  1241                           
  1242                           ;incstack = 0
  1243  0004E2  8493               	bsf	3987,2,c	;volatile
  1244                           
  1245                           ;Configuracion.c: 30: INTCON3bits.INT2F = 0;
  1246  0004E4  92F0               	bcf	intcon3,1,c	;volatile
  1247                           
  1248                           ;Configuracion.c: 31: INTCON3bits.INT2E = 1;
  1249  0004E6  88F0               	bsf	intcon3,4,c	;volatile
  1250                           
  1251                           ;Configuracion.c: 32: INTCON2bits.INTEDG2 = 1;
  1252  0004E8  88F1               	bsf	intcon2,4,c	;volatile
  1253  0004EA  0012               	return		;funcret
  1254  0004EC                     __end_of_inicializaRB2_I:
  1255                           	opt stack 0
  1256                           tblptru	equ	0xFF8
  1257                           intcon	equ	0xFF2
  1258                           intcon2	equ	0xFF1
  1259                           intcon3	equ	0xFF0
  1260                           postinc0	equ	0xFEE
  1261                           wreg	equ	0xFE8
  1262                           status	equ	0xFD8
  1263                           
  1264 ;; *************** function _inicializaRB1_I *****************
  1265 ;; Defined at:
  1266 ;;		line 20 in file "Configuracion.c"
  1267 ;; Parameters:    Size  Location     Type
  1268 ;;		None
  1269 ;; Auto vars:     Size  Location     Type
  1270 ;;		None
  1271 ;; Return value:  Size  Location     Type
  1272 ;;                  1    wreg      void 
  1273 ;; Registers used:
  1274 ;;		None
  1275 ;; Tracked objects:
  1276 ;;		On entry : 0/0
  1277 ;;		On exit  : 0/0
  1278 ;;		Unchanged: 0/0
  1279 ;; Data sizes:     COMRAM   BANK0   BANK1   BANK2   BANK3   BANK4   BANK5
  1280 ;;      Params:         0       0       0       0       0       0       0
  1281 ;;      Locals:         0       0       0       0       0       0       0
  1282 ;;      Temps:          0       0       0       0       0       0       0
  1283 ;;      Totals:         0       0       0       0       0       0       0
  1284 ;;Total ram usage:        0 bytes
  1285 ;; Hardware stack levels used:    1
  1286 ;; Hardware stack levels required when called:    2
  1287 ;; This function calls:
  1288 ;;		Nothing
  1289 ;; This function is called by:
  1290 ;;		_inicializaManipuladorMagnetico
  1291 ;; This function uses a non-reentrant model
  1292 ;;
  1293                           
  1294                           	psect	text12
  1295  0004EC                     __ptext12:
  1296                           	opt stack 0
  1297  0004EC                     _inicializaRB1_I:
  1298                           	opt stack 27
  1299                           
  1300                           ;Configuracion.c: 21: TRISBbits.RB1 = 1;
  1301                           
  1302                           ;incstack = 0
  1303  0004EC  8293               	bsf	3987,1,c	;volatile
  1304                           
  1305                           ;Configuracion.c: 23: INTCON3bits.INT1F = 0;
  1306  0004EE  90F0               	bcf	intcon3,0,c	;volatile
  1307                           
  1308                           ;Configuracion.c: 24: INTCON3bits.INT1E = 1;
  1309  0004F0  86F0               	bsf	intcon3,3,c	;volatile
  1310                           
  1311                           ;Configuracion.c: 25: INTCON2bits.INTEDG1 = 1;
  1312  0004F2  8AF1               	bsf	intcon2,5,c	;volatile
  1313  0004F4  0012               	return		;funcret
  1314  0004F6                     __end_of_inicializaRB1_I:
  1315                           	opt stack 0
  1316                           tblptru	equ	0xFF8
  1317                           intcon	equ	0xFF2
  1318                           intcon2	equ	0xFF1
  1319                           intcon3	equ	0xFF0
  1320                           postinc0	equ	0xFEE
  1321                           wreg	equ	0xFE8
  1322                           status	equ	0xFD8
  1323                           
  1324 ;; *************** function _inicializaRB0_I *****************
  1325 ;; Defined at:
  1326 ;;		line 13 in file "Configuracion.c"
  1327 ;; Parameters:    Size  Location     Type
  1328 ;;		None
  1329 ;; Auto vars:     Size  Location     Type
  1330 ;;		None
  1331 ;; Return value:  Size  Location     Type
  1332 ;;                  1    wreg      void 
  1333 ;; Registers used:
  1334 ;;		None
  1335 ;; Tracked objects:
  1336 ;;		On entry : 0/0
  1337 ;;		On exit  : 0/0
  1338 ;;		Unchanged: 0/0
  1339 ;; Data sizes:     COMRAM   BANK0   BANK1   BANK2   BANK3   BANK4   BANK5
  1340 ;;      Params:         0       0       0       0       0       0       0
  1341 ;;      Locals:         0       0       0       0       0       0       0
  1342 ;;      Temps:          0       0       0       0       0       0       0
  1343 ;;      Totals:         0       0       0       0       0       0       0
  1344 ;;Total ram usage:        0 bytes
  1345 ;; Hardware stack levels used:    1
  1346 ;; Hardware stack levels required when called:    2
  1347 ;; This function calls:
  1348 ;;		Nothing
  1349 ;; This function is called by:
  1350 ;;		_inicializaManipuladorMagnetico
  1351 ;; This function uses a non-reentrant model
  1352 ;;
  1353                           
  1354                           	psect	text13
  1355  0004F6                     __ptext13:
  1356                           	opt stack 0
  1357  0004F6                     _inicializaRB0_I:
  1358                           	opt stack 27
  1359                           
  1360                           ;Configuracion.c: 14: TRISBbits.RB0 = 1;
  1361                           
  1362                           ;incstack = 0
  1363  0004F6  8093               	bsf	3987,0,c	;volatile
  1364                           
  1365                           ;Configuracion.c: 16: INTCONbits.INT0IF = 0;
  1366  0004F8  92F2               	bcf	intcon,1,c	;volatile
  1367                           
  1368                           ;Configuracion.c: 17: INTCONbits.INT0IE = 1;
  1369  0004FA  88F2               	bsf	intcon,4,c	;volatile
  1370                           
  1371                           ;Configuracion.c: 18: INTCON2bits.INTEDG0 = 1;
  1372  0004FC  8CF1               	bsf	intcon2,6,c	;volatile
  1373  0004FE  0012               	return		;funcret
  1374  000500                     __end_of_inicializaRB0_I:
  1375                           	opt stack 0
  1376                           tblptru	equ	0xFF8
  1377                           intcon	equ	0xFF2
  1378                           intcon2	equ	0xFF1
  1379                           intcon3	equ	0xFF0
  1380                           postinc0	equ	0xFEE
  1381                           wreg	equ	0xFE8
  1382                           status	equ	0xFD8
  1383                           
  1384 ;; *************** function _inicializaPortD_Teclado *****************
  1385 ;; Defined at:
  1386 ;;		line 131 in file "Configuracion.c"
  1387 ;; Parameters:    Size  Location     Type
  1388 ;;		None
  1389 ;; Auto vars:     Size  Location     Type
  1390 ;;		None
  1391 ;; Return value:  Size  Location     Type
  1392 ;;                  1    wreg      void 
  1393 ;; Registers used:
  1394 ;;		wreg, status,2
  1395 ;; Tracked objects:
  1396 ;;		On entry : 0/0
  1397 ;;		On exit  : 0/0
  1398 ;;		Unchanged: 0/0
  1399 ;; Data sizes:     COMRAM   BANK0   BANK1   BANK2   BANK3   BANK4   BANK5
  1400 ;;      Params:         0       0       0       0       0       0       0
  1401 ;;      Locals:         0       0       0       0       0       0       0
  1402 ;;      Temps:          0       0       0       0       0       0       0
  1403 ;;      Totals:         0       0       0       0       0       0       0
  1404 ;;Total ram usage:        0 bytes
  1405 ;; Hardware stack levels used:    1
  1406 ;; Hardware stack levels required when called:    2
  1407 ;; This function calls:
  1408 ;;		Nothing
  1409 ;; This function is called by:
  1410 ;;		_inicializaManipuladorMagnetico
  1411 ;; This function uses a non-reentrant model
  1412 ;;
  1413                           
  1414                           	psect	text14
  1415  000500                     __ptext14:
  1416                           	opt stack 0
  1417  000500                     _inicializaPortD_Teclado:
  1418                           	opt stack 27
  1419                           
  1420                           ;Configuracion.c: 132: TRISD = 0b00001111;
  1421                           
  1422                           ;incstack = 0
  1423  000500  0E0F               	movlw	15
  1424  000502  6E95               	movwf	3989,c	;volatile
  1425                           
  1426                           ;Configuracion.c: 133: PORTD = 0;
  1427  000504  0E00               	movlw	0
  1428  000506  6E83               	movwf	3971,c	;volatile
  1429  000508  0012               	return		;funcret
  1430  00050A                     __end_of_inicializaPortD_Teclado:
  1431                           	opt stack 0
  1432                           tblptru	equ	0xFF8
  1433                           intcon	equ	0xFF2
  1434                           intcon2	equ	0xFF1
  1435                           intcon3	equ	0xFF0
  1436                           postinc0	equ	0xFEE
  1437                           wreg	equ	0xFE8
  1438                           status	equ	0xFD8
  1439                           
  1440 ;; *************** function _inicializaGlobalRB_I_Int *****************
  1441 ;; Defined at:
  1442 ;;		line 4 in file "Configuracion.c"
  1443 ;; Parameters:    Size  Location     Type
  1444 ;;		None
  1445 ;; Auto vars:     Size  Location     Type
  1446 ;;		None
  1447 ;; Return value:  Size  Location     Type
  1448 ;;                  1    wreg      void 
  1449 ;; Registers used:
  1450 ;;		wreg, status,2
  1451 ;; Tracked objects:
  1452 ;;		On entry : 0/0
  1453 ;;		On exit  : 0/0
  1454 ;;		Unchanged: 0/0
  1455 ;; Data sizes:     COMRAM   BANK0   BANK1   BANK2   BANK3   BANK4   BANK5
  1456 ;;      Params:         0       0       0       0       0       0       0
  1457 ;;      Locals:         0       0       0       0       0       0       0
  1458 ;;      Temps:          0       0       0       0       0       0       0
  1459 ;;      Totals:         0       0       0       0       0       0       0
  1460 ;;Total ram usage:        0 bytes
  1461 ;; Hardware stack levels used:    1
  1462 ;; Hardware stack levels required when called:    2
  1463 ;; This function calls:
  1464 ;;		Nothing
  1465 ;; This function is called by:
  1466 ;;		_inicializaManipuladorMagnetico
  1467 ;; This function uses a non-reentrant model
  1468 ;;
  1469                           
  1470                           	psect	text15
  1471  0004D6                     __ptext15:
  1472                           	opt stack 0
  1473  0004D6                     _inicializaGlobalRB_I_Int:
  1474                           	opt stack 27
  1475                           
  1476                           ;Configuracion.c: 5: ANSELH = 0;
  1477                           
  1478                           ;incstack = 0
  1479  0004D6  0E00               	movlw	0
  1480  0004D8  6E7F               	movwf	3967,c	;volatile
  1481                           
  1482                           ;Configuracion.c: 6: INTCONbits.GIEH = 1;
  1483  0004DA  8EF2               	bsf	intcon,7,c	;volatile
  1484                           
  1485                           ;Configuracion.c: 7: INTCONbits.GIEL = 1;
  1486  0004DC  8CF2               	bsf	intcon,6,c	;volatile
  1487                           
  1488                           ;Configuracion.c: 8: RCONbits.IPEN = 1;
  1489  0004DE  8ED0               	bsf	4048,7,c	;volatile
  1490  0004E0  0012               	return		;funcret
  1491  0004E2                     __end_of_inicializaGlobalRB_I_Int:
  1492                           	opt stack 0
  1493                           tblptru	equ	0xFF8
  1494                           intcon	equ	0xFF2
  1495                           intcon2	equ	0xFF1
  1496                           intcon3	equ	0xFF0
  1497                           postinc0	equ	0xFEE
  1498                           wreg	equ	0xFE8
  1499                           status	equ	0xFD8
  1500                           
  1501 ;; *************** function _inicializaAnalogicas *****************
  1502 ;; Defined at:
  1503 ;;		line 94 in file "Configuracion.c"
  1504 ;; Parameters:    Size  Location     Type
  1505 ;;		None
  1506 ;; Auto vars:     Size  Location     Type
  1507 ;;		None
  1508 ;; Return value:  Size  Location     Type
  1509 ;;                  1    wreg      void 
  1510 ;; Registers used:
  1511 ;;		wreg, status,2
  1512 ;; Tracked objects:
  1513 ;;		On entry : 0/0
  1514 ;;		On exit  : 0/0
  1515 ;;		Unchanged: 0/0
  1516 ;; Data sizes:     COMRAM   BANK0   BANK1   BANK2   BANK3   BANK4   BANK5
  1517 ;;      Params:         0       0       0       0       0       0       0
  1518 ;;      Locals:         0       0       0       0       0       0       0
  1519 ;;      Temps:          0       0       0       0       0       0       0
  1520 ;;      Totals:         0       0       0       0       0       0       0
  1521 ;;Total ram usage:        0 bytes
  1522 ;; Hardware stack levels used:    1
  1523 ;; Hardware stack levels required when called:    2
  1524 ;; This function calls:
  1525 ;;		Nothing
  1526 ;; This function is called by:
  1527 ;;		_inicializaManipuladorMagnetico
  1528 ;; This function uses a non-reentrant model
  1529 ;;
  1530                           
  1531                           	psect	text16
  1532  000440                     __ptext16:
  1533                           	opt stack 0
  1534  000440                     _inicializaAnalogicas:
  1535                           	opt stack 27
  1536                           
  1537                           ;Configuracion.c: 95: PIR1bits.ADIF = 0;
  1538                           
  1539                           ;incstack = 0
  1540  000440  9C9E               	bcf	3998,6,c	;volatile
  1541                           
  1542                           ;Configuracion.c: 96: PIE1bits.ADIE = 1;
  1543  000442  8C9D               	bsf	3997,6,c	;volatile
  1544                           
  1545                           ;Configuracion.c: 97: IPR1bits.ADIP = 0;
  1546  000444  9C9F               	bcf	3999,6,c	;volatile
  1547                           
  1548                           ;Configuracion.c: 100: ADRES = 0;
  1549  000446  0E00               	movlw	0
  1550  000448  6EC4               	movwf	4036,c	;volatile
  1551  00044A  0E00               	movlw	0
  1552  00044C  6EC3               	movwf	4035,c	;volatile
  1553                           
  1554                           ;Configuracion.c: 101: ADCON0bits.CHS = 0;
  1555  00044E  94C2               	bcf	4034,2,c	;volatile
  1556  000450  96C2               	bcf	4034,3,c	;volatile
  1557  000452  98C2               	bcf	4034,4,c	;volatile
  1558  000454  9AC2               	bcf	4034,5,c	;volatile
  1559                           
  1560                           ;Configuracion.c: 102: ADCON0bits.ADON = 1;
  1561  000456  80C2               	bsf	4034,0,c	;volatile
  1562                           
  1563                           ;Configuracion.c: 105: ADCON2bits.ADFM = 0;
  1564  000458  9EC0               	bcf	4032,7,c	;volatile
  1565                           
  1566                           ;Configuracion.c: 106: ADCON2bits.ADCS = 0b111;
  1567  00045A  80C0               	bsf	4032,0,c	;volatile
  1568  00045C  82C0               	bsf	4032,1,c	;volatile
  1569  00045E  84C0               	bsf	4032,2,c	;volatile
  1570  000460  0012               	return		;funcret
  1571  000462                     __end_of_inicializaAnalogicas:
  1572                           	opt stack 0
  1573                           tblptru	equ	0xFF8
  1574                           intcon	equ	0xFF2
  1575                           intcon2	equ	0xFF1
  1576                           intcon3	equ	0xFF0
  1577                           postinc0	equ	0xFEE
  1578                           wreg	equ	0xFE8
  1579                           status	equ	0xFD8
  1580                           
  1581 ;; *************** function _inicializaAN1_I *****************
  1582 ;; Defined at:
  1583 ;;		line 90 in file "Configuracion.c"
  1584 ;; Parameters:    Size  Location     Type
  1585 ;;		None
  1586 ;; Auto vars:     Size  Location     Type
  1587 ;;		None
  1588 ;; Return value:  Size  Location     Type
  1589 ;;                  1    wreg      void 
  1590 ;; Registers used:
  1591 ;;		None
  1592 ;; Tracked objects:
  1593 ;;		On entry : 0/0
  1594 ;;		On exit  : 0/0
  1595 ;;		Unchanged: 0/0
  1596 ;; Data sizes:     COMRAM   BANK0   BANK1   BANK2   BANK3   BANK4   BANK5
  1597 ;;      Params:         0       0       0       0       0       0       0
  1598 ;;      Locals:         0       0       0       0       0       0       0
  1599 ;;      Temps:          0       0       0       0       0       0       0
  1600 ;;      Totals:         0       0       0       0       0       0       0
  1601 ;;Total ram usage:        0 bytes
  1602 ;; Hardware stack levels used:    1
  1603 ;; Hardware stack levels required when called:    2
  1604 ;; This function calls:
  1605 ;;		Nothing
  1606 ;; This function is called by:
  1607 ;;		_inicializaManipuladorMagnetico
  1608 ;; This function uses a non-reentrant model
  1609 ;;
  1610                           
  1611                           	psect	text17
  1612  000522                     __ptext17:
  1613                           	opt stack 0
  1614  000522                     _inicializaAN1_I:
  1615                           	opt stack 27
  1616                           
  1617                           ;Configuracion.c: 91: TRISAbits.RA1 = 1;
  1618                           
  1619                           ;incstack = 0
  1620  000522  8292               	bsf	3986,1,c	;volatile
  1621                           
  1622                           ;Configuracion.c: 92: ANSELbits.ANS1 = 1;
  1623  000524  827E               	bsf	3966,1,c	;volatile
  1624  000526  0012               	return		;funcret
  1625  000528                     __end_of_inicializaAN1_I:
  1626                           	opt stack 0
  1627                           tblptru	equ	0xFF8
  1628                           intcon	equ	0xFF2
  1629                           intcon2	equ	0xFF1
  1630                           intcon3	equ	0xFF0
  1631                           postinc0	equ	0xFEE
  1632                           wreg	equ	0xFE8
  1633                           status	equ	0xFD8
  1634                           
  1635 ;; *************** function _inicializaAN0_I *****************
  1636 ;; Defined at:
  1637 ;;		line 86 in file "Configuracion.c"
  1638 ;; Parameters:    Size  Location     Type
  1639 ;;		None
  1640 ;; Auto vars:     Size  Location     Type
  1641 ;;		None
  1642 ;; Return value:  Size  Location     Type
  1643 ;;                  1    wreg      void 
  1644 ;; Registers used:
  1645 ;;		None
  1646 ;; Tracked objects:
  1647 ;;		On entry : 0/0
  1648 ;;		On exit  : 0/0
  1649 ;;		Unchanged: 0/0
  1650 ;; Data sizes:     COMRAM   BANK0   BANK1   BANK2   BANK3   BANK4   BANK5
  1651 ;;      Params:         0       0       0       0       0       0       0
  1652 ;;      Locals:         0       0       0       0       0       0       0
  1653 ;;      Temps:          0       0       0       0       0       0       0
  1654 ;;      Totals:         0       0       0       0       0       0       0
  1655 ;;Total ram usage:        0 bytes
  1656 ;; Hardware stack levels used:    1
  1657 ;; Hardware stack levels required when called:    2
  1658 ;; This function calls:
  1659 ;;		Nothing
  1660 ;; This function is called by:
  1661 ;;		_inicializaManipuladorMagnetico
  1662 ;; This function uses a non-reentrant model
  1663 ;;
  1664                           
  1665                           	psect	text18
  1666  000528                     __ptext18:
  1667                           	opt stack 0
  1668  000528                     _inicializaAN0_I:
  1669                           	opt stack 27
  1670                           
  1671                           ;Configuracion.c: 87: TRISAbits.RA0 = 1;
  1672                           
  1673                           ;incstack = 0
  1674  000528  8092               	bsf	3986,0,c	;volatile
  1675                           
  1676                           ;Configuracion.c: 88: ANSELbits.ANS0 = 1;
  1677  00052A  807E               	bsf	3966,0,c	;volatile
  1678  00052C  0012               	return		;funcret
  1679  00052E                     __end_of_inicializaAN0_I:
  1680                           	opt stack 0
  1681                           tblptru	equ	0xFF8
  1682                           intcon	equ	0xFF2
  1683                           intcon2	equ	0xFF1
  1684                           intcon3	equ	0xFF0
  1685                           postinc0	equ	0xFEE
  1686                           wreg	equ	0xFE8
  1687                           status	equ	0xFD8
  1688                           
  1689 ;; *************** function _interrupcionBaixa *****************
  1690 ;; Defined at:
  1691 ;;		line 27 in file "main.c"
  1692 ;; Parameters:    Size  Location     Type
  1693 ;;		None
  1694 ;; Auto vars:     Size  Location     Type
  1695 ;;		None
  1696 ;; Return value:  Size  Location     Type
  1697 ;;                  1    wreg      void 
  1698 ;; Registers used:
  1699 ;;		wreg, status,2, status,0
  1700 ;; Tracked objects:
  1701 ;;		On entry : 0/0
  1702 ;;		On exit  : 0/0
  1703 ;;		Unchanged: 0/0
  1704 ;; Data sizes:     COMRAM   BANK0   BANK1   BANK2   BANK3   BANK4   BANK5
  1705 ;;      Params:         0       0       0       0       0       0       0
  1706 ;;      Locals:         0       0       0       0       0       0       0
  1707 ;;      Temps:         21       0       0       0       0       0       0
  1708 ;;      Totals:        21       0       0       0       0       0       0
  1709 ;;Total ram usage:       21 bytes
  1710 ;; Hardware stack levels used:    1
  1711 ;; Hardware stack levels required when called:    1
  1712 ;; This function calls:
  1713 ;;		Nothing
  1714 ;; This function is called by:
  1715 ;;		Interrupt level 1
  1716 ;; This function uses a non-reentrant model
  1717 ;;
  1718                           
  1719                           	psect	intcodelo
  1720  000018                     __pintcodelo:
  1721                           	opt stack 0
  1722  000018                     _interrupcionBaixa:
  1723                           	opt stack 27
  1724                           
  1725                           ;incstack = 0
  1726  000018  803B               	bsf	btemp,0,c	;set compiler interrupt flag (level 1)
  1727  00001A  CFD8 F013          	movff	status,??_interrupcionBaixa+4
  1728  00001E  CFE8 F014          	movff	wreg,??_interrupcionBaixa+5
  1729  000022  CFE0 F015          	movff	bsr,??_interrupcionBaixa+6
  1730  000026  CFFA F016          	movff	pclath,??_interrupcionBaixa+7
  1731  00002A  CFFB F017          	movff	pclatu,??_interrupcionBaixa+8
  1732  00002E  CFE9 F018          	movff	fsr0l,??_interrupcionBaixa+9
  1733  000032  CFEA F019          	movff	fsr0h,??_interrupcionBaixa+10
  1734  000036  CFE1 F01A          	movff	fsr1l,??_interrupcionBaixa+11
  1735  00003A  CFE2 F01B          	movff	fsr1h,??_interrupcionBaixa+12
  1736  00003E  CFD9 F01C          	movff	fsr2l,??_interrupcionBaixa+13
  1737  000042  CFDA F01D          	movff	fsr2h,??_interrupcionBaixa+14
  1738  000046  CFF3 F01E          	movff	prodl,??_interrupcionBaixa+15
  1739  00004A  CFF4 F01F          	movff	prodh,??_interrupcionBaixa+16
  1740  00004E  CFF6 F020          	movff	tblptrl,??_interrupcionBaixa+17
  1741  000052  CFF7 F021          	movff	tblptrh,??_interrupcionBaixa+18
  1742  000056  CFF8 F022          	movff	tblptru,??_interrupcionBaixa+19
  1743  00005A  CFF5 F023          	movff	tablat,??_interrupcionBaixa+20
  1744                           
  1745                           ;main.c: 28: if (PIR1bits.ADIF){
  1746  00005E  AC9E               	btfss	3998,6,c	;volatile
  1747  000060  D04F               	goto	i1l1028
  1748                           
  1749                           ;main.c: 29: PIR1bits.ADIF=0;
  1750  000062  9C9E               	bcf	3998,6,c	;volatile
  1751                           
  1752                           ;main.c: 30: if(actual == 0){
  1753  000064  502D               	movf	_actual,w,c
  1754  000066  102E               	iorwf	_actual+1,w,c
  1755  000068  A4D8               	btfss	status,2,c
  1756  00006A  D023               	goto	i1l1014
  1757                           
  1758                           ;main.c: 31: ultimaLectura0=(ADRESH<<2)&ADRESL;
  1759  00006C  50C4               	movf	4036,w,c	;volatile
  1760  00006E  6E0F               	movwf	??_interrupcionBaixa& (0+255),c
  1761  000070  6A10               	clrf	(??_interrupcionBaixa+1)& (0+255),c
  1762  000072  90D8               	bcf	status,0,c
  1763  000074  360F               	rlcf	??_interrupcionBaixa,f,c
  1764  000076  3610               	rlcf	??_interrupcionBaixa+1,f,c
  1765  000078  90D8               	bcf	status,0,c
  1766  00007A  360F               	rlcf	??_interrupcionBaixa,f,c
  1767  00007C  3610               	rlcf	??_interrupcionBaixa+1,f,c
  1768  00007E  50C3               	movf	4035,w,c	;volatile
  1769  000080  140F               	andwf	??_interrupcionBaixa,w,c
  1770  000082  6E31               	movwf	_ultimaLectura0,c
  1771  000084  0E00               	movlw	0
  1772  000086  1410               	andwf	??_interrupcionBaixa+1,w,c
  1773  000088  6E32               	movwf	_ultimaLectura0+1,c
  1774                           
  1775                           ;main.c: 32: ultimaLectura0=ADRES;
  1776  00008A  CFC3 F031          	movff	4035,_ultimaLectura0	;volatile
  1777  00008E  CFC4 F032          	movff	4036,_ultimaLectura0+1	;volatile
  1778                           
  1779                           ;main.c: 33: actual=1;
  1780  000092  0E00               	movlw	0
  1781  000094  6E2E               	movwf	_actual+1,c
  1782  000096  0E01               	movlw	1
  1783  000098  6E2D               	movwf	_actual,c
  1784                           
  1785                           ;main.c: 34: ADCON0bits.CHS=1;
  1786  00009A  50C2               	movf	4034,w,c	;volatile
  1787  00009C  0BC3               	andlw	-61
  1788  00009E  0904               	iorlw	4
  1789  0000A0  6EC2               	movwf	4034,c	;volatile
  1790                           
  1791                           ;main.c: 35: CCPR1L = ADRESH;
  1792  0000A2  CFC4 FFBE          	movff	4036,4030	;volatile
  1793                           
  1794                           ;main.c: 36: if(CCPR1L > 250) CCPR1L=250;
  1795  0000A6  0EFA               	movlw	250
  1796  0000A8  64BE               	cpfsgt	4030,c	;volatile
  1797  0000AA  D029               	goto	i1l1026
  1798  0000AC  0EFA               	movlw	250
  1799  0000AE  6EBE               	movwf	4030,c	;volatile
  1800                           
  1801                           ;main.c: 37: }else{
  1802  0000B0  D026               	goto	i1l1026
  1803  0000B2                     i1l1014:
  1804                           
  1805                           ;main.c: 38: ultimaLectura1=(ADRESH<<2)+(ADRESL>>6);
  1806  0000B2  CFC3 F00F          	movff	4035,??_interrupcionBaixa	;volatile
  1807  0000B6  0E06               	movlw	6
  1808  0000B8  6E10               	movwf	(??_interrupcionBaixa+1)& (0+255),c
  1809  0000BA                     i1u25_25:
  1810  0000BA  90D8               	bcf	status,0,c
  1811  0000BC  320F               	rrcf	??_interrupcionBaixa,f,c
  1812  0000BE  2E10               	decfsz	(??_interrupcionBaixa+1)& (0+255),f,c
  1813  0000C0  D7FC               	goto	i1u25_25
  1814  0000C2  50C4               	movf	4036,w,c	;volatile
  1815  0000C4  6E11               	movwf	(??_interrupcionBaixa+2)& (0+255),c
  1816  0000C6  6A12               	clrf	(??_interrupcionBaixa+3)& (0+255),c
  1817  0000C8  90D8               	bcf	status,0,c
  1818  0000CA  3611               	rlcf	??_interrupcionBaixa+2,f,c
  1819  0000CC  3612               	rlcf	??_interrupcionBaixa+3,f,c
  1820  0000CE  90D8               	bcf	status,0,c
  1821  0000D0  3611               	rlcf	??_interrupcionBaixa+2,f,c
  1822  0000D2  3612               	rlcf	??_interrupcionBaixa+3,f,c
  1823  0000D4  500F               	movf	??_interrupcionBaixa,w,c
  1824  0000D6  2411               	addwf	??_interrupcionBaixa+2,w,c
  1825  0000D8  6E33               	movwf	_ultimaLectura1,c
  1826  0000DA  0E00               	movlw	0
  1827  0000DC  2012               	addwfc	??_interrupcionBaixa+3,w,c
  1828  0000DE  6E34               	movwf	_ultimaLectura1+1,c
  1829                           
  1830                           ;main.c: 40: ADCON0bits.CHS=0;
  1831  0000E0  94C2               	bcf	4034,2,c	;volatile
  1832  0000E2  96C2               	bcf	4034,3,c	;volatile
  1833  0000E4  98C2               	bcf	4034,4,c	;volatile
  1834  0000E6  9AC2               	bcf	4034,5,c	;volatile
  1835                           
  1836                           ;main.c: 41: actual=0;
  1837  0000E8  0E00               	movlw	0
  1838  0000EA  6E2E               	movwf	_actual+1,c
  1839  0000EC  0E00               	movlw	0
  1840  0000EE  6E2D               	movwf	_actual,c
  1841                           
  1842                           ;main.c: 42: CCPR2L = ADRESH;
  1843  0000F0  CFC4 FFBB          	movff	4036,4027	;volatile
  1844                           
  1845                           ;main.c: 43: if(CCPR2L > 250) CCPR2L=250;
  1846  0000F4  0EFA               	movlw	250
  1847  0000F6  64BB               	cpfsgt	4027,c	;volatile
  1848  0000F8  D002               	goto	i1l1026
  1849  0000FA  0EFA               	movlw	250
  1850  0000FC  6EBB               	movwf	4027,c	;volatile
  1851  0000FE                     i1l1026:
  1852                           
  1853                           ;main.c: 44: }
  1854                           ;main.c: 45: ADCON0bits.GO=1;
  1855  0000FE  82C2               	bsf	4034,1,c	;volatile
  1856  000100                     i1l1028:
  1857                           
  1858                           ;main.c: 46: }
  1859                           ;main.c: 47: if (INTCONbits.RBIF){
  1860  000100  A0F2               	btfss	intcon,0,c	;volatile
  1861  000102  D042               	goto	i1l59
  1862                           
  1863                           ;main.c: 48: INTCONbits.RBIF = 0;
  1864  000104  90F2               	bcf	intcon,0,c	;volatile
  1865                           
  1866                           ;main.c: 49: if(!anteriorRB4 & PORTBbits.RB4){
  1867  000106  5035               	movf	_anteriorRB4,w,c
  1868  000108  1036               	iorwf	_anteriorRB4+1,w,c
  1869  00010A  A4D8               	btfss	status,2,c
  1870  00010C  D002               	goto	i1u28_20
  1871  00010E  0E01               	movlw	1
  1872  000110  D001               	goto	i1u29_20
  1873  000112                     i1u28_20:
  1874  000112  0E00               	movlw	0
  1875  000114                     i1u29_20:
  1876  000114  6E0F               	movwf	??_interrupcionBaixa& (0+255),c
  1877  000116  6A10               	clrf	(??_interrupcionBaixa+1)& (0+255),c
  1878  000118  A881               	btfss	3969,4,c	;volatile
  1879  00011A  D003               	goto	i1u30_20
  1880  00011C  6A11               	clrf	(??_interrupcionBaixa+2)& (0+255),c
  1881  00011E  2A11               	incf	(??_interrupcionBaixa+2)& (0+255),f,c
  1882  000120  D001               	goto	i1u30_28
  1883  000122                     i1u30_20:
  1884  000122  6A11               	clrf	(??_interrupcionBaixa+2)& (0+255),c
  1885  000124                     i1u30_28:
  1886  000124  5011               	movf	??_interrupcionBaixa+2,w,c
  1887  000126  160F               	andwf	??_interrupcionBaixa,f,c
  1888  000128  0E00               	movlw	0
  1889  00012A  1610               	andwf	??_interrupcionBaixa+1,f,c
  1890  00012C  500F               	movf	??_interrupcionBaixa,w,c
  1891  00012E  1010               	iorwf	??_interrupcionBaixa+1,w,c
  1892  000130  A4D8               	btfss	status,2,c
  1893                           
  1894                           ;main.c: 50: __nop();
  1895  000132  F000               	nop	
  1896                           
  1897                           ;main.c: 52: }
  1898                           ;main.c: 53: if(!anteriorRB5 & PORTBbits.RB5){
  1899  000134  5037               	movf	_anteriorRB5,w,c
  1900  000136  1038               	iorwf	_anteriorRB5+1,w,c
  1901  000138  A4D8               	btfss	status,2,c
  1902  00013A  D002               	goto	i1u32_20
  1903  00013C  0E01               	movlw	1
  1904  00013E  D001               	goto	i1u33_20
  1905  000140                     i1u32_20:
  1906  000140  0E00               	movlw	0
  1907  000142                     i1u33_20:
  1908  000142  6E0F               	movwf	??_interrupcionBaixa& (0+255),c
  1909  000144  6A10               	clrf	(??_interrupcionBaixa+1)& (0+255),c
  1910  000146  AA81               	btfss	3969,5,c	;volatile
  1911  000148  D003               	goto	i1u34_20
  1912  00014A  6A11               	clrf	(??_interrupcionBaixa+2)& (0+255),c
  1913  00014C  2A11               	incf	(??_interrupcionBaixa+2)& (0+255),f,c
  1914  00014E  D001               	goto	i1u34_28
  1915  000150                     i1u34_20:
  1916  000150  6A11               	clrf	(??_interrupcionBaixa+2)& (0+255),c
  1917  000152                     i1u34_28:
  1918  000152  5011               	movf	??_interrupcionBaixa+2,w,c
  1919  000154  160F               	andwf	??_interrupcionBaixa,f,c
  1920  000156  0E00               	movlw	0
  1921  000158  1610               	andwf	??_interrupcionBaixa+1,f,c
  1922  00015A  500F               	movf	??_interrupcionBaixa,w,c
  1923  00015C  1010               	iorwf	??_interrupcionBaixa+1,w,c
  1924  00015E  A4D8               	btfss	status,2,c
  1925                           
  1926                           ;main.c: 54: __nop();
  1927  000160  F000               	nop	
  1928                           
  1929                           ;main.c: 56: }
  1930                           ;main.c: 57: anteriorRB4 = PORTBbits.RB4;
  1931  000162  A881               	btfss	3969,4,c	;volatile
  1932  000164  D003               	goto	i1u36_20
  1933  000166  6A0F               	clrf	??_interrupcionBaixa& (0+255),c
  1934  000168  2A0F               	incf	??_interrupcionBaixa& (0+255),f,c
  1935  00016A  D001               	goto	i1u36_28
  1936  00016C                     i1u36_20:
  1937  00016C  6A0F               	clrf	??_interrupcionBaixa& (0+255),c
  1938  00016E                     i1u36_28:
  1939  00016E  500F               	movf	??_interrupcionBaixa,w,c
  1940  000170  6E35               	movwf	_anteriorRB4,c
  1941  000172  6A36               	clrf	_anteriorRB4+1,c
  1942                           
  1943                           ;main.c: 58: anteriorRB5 = PORTBbits.RB5;
  1944  000174  AA81               	btfss	3969,5,c	;volatile
  1945  000176  D003               	goto	i1u37_20
  1946  000178  6A0F               	clrf	??_interrupcionBaixa& (0+255),c
  1947  00017A  2A0F               	incf	??_interrupcionBaixa& (0+255),f,c
  1948  00017C  D001               	goto	i1u37_28
  1949  00017E                     i1u37_20:
  1950  00017E  6A0F               	clrf	??_interrupcionBaixa& (0+255),c
  1951  000180                     i1u37_28:
  1952  000180  500F               	movf	??_interrupcionBaixa,w,c
  1953  000182  6E37               	movwf	_anteriorRB5,c
  1954  000184  6A38               	clrf	_anteriorRB5+1,c
  1955                           
  1956                           ;main.c: 59: INTCONbits.RBIF = 0;
  1957  000186  90F2               	bcf	intcon,0,c	;volatile
  1958  000188                     i1l59:
  1959  000188  C023  FFF5         	movff	??_interrupcionBaixa+20,tablat
  1960  00018C  C022  FFF8         	movff	??_interrupcionBaixa+19,tblptru
  1961  000190  C021  FFF7         	movff	??_interrupcionBaixa+18,tblptrh
  1962  000194  C020  FFF6         	movff	??_interrupcionBaixa+17,tblptrl
  1963  000198  C01F  FFF4         	movff	??_interrupcionBaixa+16,prodh
  1964  00019C  C01E  FFF3         	movff	??_interrupcionBaixa+15,prodl
  1965  0001A0  C01D  FFDA         	movff	??_interrupcionBaixa+14,fsr2h
  1966  0001A4  C01C  FFD9         	movff	??_interrupcionBaixa+13,fsr2l
  1967  0001A8  C01B  FFE2         	movff	??_interrupcionBaixa+12,fsr1h
  1968  0001AC  C01A  FFE1         	movff	??_interrupcionBaixa+11,fsr1l
  1969  0001B0  C019  FFEA         	movff	??_interrupcionBaixa+10,fsr0h
  1970  0001B4  C018  FFE9         	movff	??_interrupcionBaixa+9,fsr0l
  1971  0001B8  C017  FFFB         	movff	??_interrupcionBaixa+8,pclatu
  1972  0001BC  C016  FFFA         	movff	??_interrupcionBaixa+7,pclath
  1973  0001C0  C015  FFE0         	movff	??_interrupcionBaixa+6,bsr
  1974  0001C4  C014  FFE8         	movff	??_interrupcionBaixa+5,wreg
  1975  0001C8  C013  FFD8         	movff	??_interrupcionBaixa+4,status
  1976  0001CC  903B               	bcf	btemp,0,c	;clear compiler interrupt flag (level 1)
  1977  0001CE  0010               	retfie	
  1978  0001D0                     __end_of_interrupcionBaixa:
  1979                           	opt stack 0
  1980                           pclatu	equ	0xFFB
  1981                           pclath	equ	0xFFA
  1982                           tblptru	equ	0xFF8
  1983                           tblptrh	equ	0xFF7
  1984                           tblptrl	equ	0xFF6
  1985                           tablat	equ	0xFF5
  1986                           prodh	equ	0xFF4
  1987                           prodl	equ	0xFF3
  1988                           intcon	equ	0xFF2
  1989                           intcon2	equ	0xFF1
  1990                           intcon3	equ	0xFF0
  1991                           postinc0	equ	0xFEE
  1992                           fsr0h	equ	0xFEA
  1993                           fsr0l	equ	0xFE9
  1994                           wreg	equ	0xFE8
  1995                           fsr1h	equ	0xFE2
  1996                           fsr1l	equ	0xFE1
  1997                           bsr	equ	0xFE0
  1998                           fsr2h	equ	0xFDA
  1999                           fsr2l	equ	0xFD9
  2000                           status	equ	0xFD8
  2001                           
  2002 ;; *************** function _interrupcionAlta *****************
  2003 ;; Defined at:
  2004 ;;		line 16 in file "main.c"
  2005 ;; Parameters:    Size  Location     Type
  2006 ;;		None
  2007 ;; Auto vars:     Size  Location     Type
  2008 ;;		None
  2009 ;; Return value:  Size  Location     Type
  2010 ;;                  1    wreg      void 
  2011 ;; Registers used:
  2012 ;;		None
  2013 ;; Tracked objects:
  2014 ;;		On entry : 0/0
  2015 ;;		On exit  : 0/0
  2016 ;;		Unchanged: 0/0
  2017 ;; Data sizes:     COMRAM   BANK0   BANK1   BANK2   BANK3   BANK4   BANK5
  2018 ;;      Params:         0       0       0       0       0       0       0
  2019 ;;      Locals:         0       0       0       0       0       0       0
  2020 ;;      Temps:         14       0       0       0       0       0       0
  2021 ;;      Totals:        14       0       0       0       0       0       0
  2022 ;;Total ram usage:       14 bytes
  2023 ;; Hardware stack levels used:    1
  2024 ;; This function calls:
  2025 ;;		Nothing
  2026 ;; This function is called by:
  2027 ;;		Interrupt level 2
  2028 ;; This function uses a non-reentrant model
  2029 ;;
  2030                           
  2031                           	psect	intcode
  2032  000008                     __pintcode:
  2033                           	opt stack 0
  2034  000008                     _interrupcionAlta:
  2035                           	opt stack 27
  2036                           
  2037                           ;incstack = 0
  2038  000008  823B               	bsf	btemp,1,c	;set compiler interrupt flag (level 2)
  2039  00000A  CFFA F001          	movff	pclath,??_interrupcionAlta
  2040  00000E  CFFB F002          	movff	pclatu,??_interrupcionAlta+1
  2041  000012  EFA0  F001         	goto	int_func
  2042                           pclatu	equ	0xFFB
  2043                           pclath	equ	0xFFA
  2044                           tblptru	equ	0xFF8
  2045                           tblptrh	equ	0xFF7
  2046                           tblptrl	equ	0xFF6
  2047                           tablat	equ	0xFF5
  2048                           prodh	equ	0xFF4
  2049                           prodl	equ	0xFF3
  2050                           intcon	equ	0xFF2
  2051                           intcon2	equ	0xFF1
  2052                           intcon3	equ	0xFF0
  2053                           postinc0	equ	0xFEE
  2054                           fsr0h	equ	0xFEA
  2055                           fsr0l	equ	0xFE9
  2056                           wreg	equ	0xFE8
  2057                           fsr1h	equ	0xFE2
  2058                           fsr1l	equ	0xFE1
  2059                           bsr	equ	0xFE0
  2060                           fsr2h	equ	0xFDA
  2061                           fsr2l	equ	0xFD9
  2062                           status	equ	0xFD8
  2063                           
  2064                           	psect	intcode_body
  2065  000340                     __pintcode_body:
  2066                           	opt stack 27
  2067  000340                     int_func:
  2068                           	opt stack 27
  2069  000340  CFE9 F003          	movff	fsr0l,??_interrupcionAlta+2
  2070  000344  CFEA F004          	movff	fsr0h,??_interrupcionAlta+3
  2071  000348  CFE1 F005          	movff	fsr1l,??_interrupcionAlta+4
  2072  00034C  CFE2 F006          	movff	fsr1h,??_interrupcionAlta+5
  2073  000350  CFD9 F007          	movff	fsr2l,??_interrupcionAlta+6
  2074  000354  CFDA F008          	movff	fsr2h,??_interrupcionAlta+7
  2075  000358  CFF3 F009          	movff	prodl,??_interrupcionAlta+8
  2076  00035C  CFF4 F00A          	movff	prodh,??_interrupcionAlta+9
  2077  000360  CFF6 F00B          	movff	tblptrl,??_interrupcionAlta+10
  2078  000364  CFF7 F00C          	movff	tblptrh,??_interrupcionAlta+11
  2079  000368  CFF8 F00D          	movff	tblptru,??_interrupcionAlta+12
  2080  00036C  CFF5 F00E          	movff	tablat,??_interrupcionAlta+13
  2081                           
  2082                           ;main.c: 17: if (INTCONbits.INT0IF){
  2083  000370  B2F2               	btfsc	intcon,1,c	;volatile
  2084                           
  2085                           ;main.c: 18: INTCONbits.INT0IF = 0;
  2086  000372  92F2               	bcf	intcon,1,c	;volatile
  2087                           
  2088                           ;main.c: 19: }
  2089                           ;main.c: 20: if (INTCON3bits.INT1IF){
  2090  000374  B0F0               	btfsc	intcon3,0,c	;volatile
  2091                           
  2092                           ;main.c: 21: INTCON3bits.INT1IF = 0;
  2093  000376  90F0               	bcf	intcon3,0,c	;volatile
  2094                           
  2095                           ;main.c: 22: }
  2096                           ;main.c: 23: if (INTCON3bits.INT2IF){
  2097  000378  B2F0               	btfsc	intcon3,1,c	;volatile
  2098                           
  2099                           ;main.c: 24: INTCON3bits.INT2IF = 0;
  2100  00037A  92F0               	bcf	intcon3,1,c	;volatile
  2101  00037C  C00E  FFF5         	movff	??_interrupcionAlta+13,tablat
  2102  000380  C00D  FFF8         	movff	??_interrupcionAlta+12,tblptru
  2103  000384  C00C  FFF7         	movff	??_interrupcionAlta+11,tblptrh
  2104  000388  C00B  FFF6         	movff	??_interrupcionAlta+10,tblptrl
  2105  00038C  C00A  FFF4         	movff	??_interrupcionAlta+9,prodh
  2106  000390  C009  FFF3         	movff	??_interrupcionAlta+8,prodl
  2107  000394  C008  FFDA         	movff	??_interrupcionAlta+7,fsr2h
  2108  000398  C007  FFD9         	movff	??_interrupcionAlta+6,fsr2l
  2109  00039C  C006  FFE2         	movff	??_interrupcionAlta+5,fsr1h
  2110  0003A0  C005  FFE1         	movff	??_interrupcionAlta+4,fsr1l
  2111  0003A4  C004  FFEA         	movff	??_interrupcionAlta+3,fsr0h
  2112  0003A8  C003  FFE9         	movff	??_interrupcionAlta+2,fsr0l
  2113  0003AC  C002  FFFB         	movff	??_interrupcionAlta+1,pclatu
  2114  0003B0  C001  FFFA         	movff	??_interrupcionAlta,pclath
  2115  0003B4  923B               	bcf	btemp,1,c	;clear compiler interrupt flag (level 2)
  2116  0003B6  0011               	retfie		f
  2117  0003B8                     __end_of_interrupcionAlta:
  2118                           	opt stack 0
  2119  0000                     pclatu	equ	0xFFB
  2120                           pclath	equ	0xFFA
  2121                           tblptru	equ	0xFF8
  2122                           tblptrh	equ	0xFF7
  2123                           tblptrl	equ	0xFF6
  2124                           tablat	equ	0xFF5
  2125                           prodh	equ	0xFF4
  2126                           prodl	equ	0xFF3
  2127                           intcon	equ	0xFF2
  2128                           intcon2	equ	0xFF1
  2129                           intcon3	equ	0xFF0
  2130                           postinc0	equ	0xFEE
  2131                           fsr0h	equ	0xFEA
  2132                           fsr0l	equ	0xFE9
  2133                           wreg	equ	0xFE8
  2134                           fsr1h	equ	0xFE2
  2135                           fsr1l	equ	0xFE1
  2136                           bsr	equ	0xFE0
  2137                           fsr2h	equ	0xFDA
  2138                           fsr2l	equ	0xFD9
  2139                           status	equ	0xFD8
  2140                           pclatu	equ	0xFFB
  2141                           pclath	equ	0xFFA
  2142                           tblptru	equ	0xFF8
  2143                           tblptrh	equ	0xFF7
  2144                           tblptrl	equ	0xFF6
  2145                           tablat	equ	0xFF5
  2146                           prodh	equ	0xFF4
  2147                           prodl	equ	0xFF3
  2148                           intcon	equ	0xFF2
  2149                           intcon2	equ	0xFF1
  2150                           intcon3	equ	0xFF0
  2151                           postinc0	equ	0xFEE
  2152                           fsr0h	equ	0xFEA
  2153                           fsr0l	equ	0xFE9
  2154                           wreg	equ	0xFE8
  2155                           fsr1h	equ	0xFE2
  2156                           fsr1l	equ	0xFE1
  2157                           bsr	equ	0xFE0
  2158                           fsr2h	equ	0xFDA
  2159                           fsr2l	equ	0xFD9
  2160                           status	equ	0xFD8
  2161                           
  2162                           	psect	rparam
  2163  0000                     pclatu	equ	0xFFB
  2164                           pclath	equ	0xFFA
  2165                           tblptru	equ	0xFF8
  2166                           tblptrh	equ	0xFF7
  2167                           tblptrl	equ	0xFF6
  2168                           tablat	equ	0xFF5
  2169                           prodh	equ	0xFF4
  2170                           prodl	equ	0xFF3
  2171                           intcon	equ	0xFF2
  2172                           intcon2	equ	0xFF1
  2173                           intcon3	equ	0xFF0
  2174                           postinc0	equ	0xFEE
  2175                           fsr0h	equ	0xFEA
  2176                           fsr0l	equ	0xFE9
  2177                           wreg	equ	0xFE8
  2178                           fsr1h	equ	0xFE2
  2179                           fsr1l	equ	0xFE1
  2180                           bsr	equ	0xFE0
  2181                           fsr2h	equ	0xFDA
  2182                           fsr2l	equ	0xFD9
  2183                           status	equ	0xFD8
  2184                           
  2185                           	psect	temp
  2186  00003B                     btemp:
  2187                           	opt stack 0
  2188  00003B                     	ds	1
  2189  0000                     int$flags	set	btemp
  2190                           pclatu	equ	0xFFB
  2191                           pclath	equ	0xFFA
  2192                           tblptru	equ	0xFF8
  2193                           tblptrh	equ	0xFF7
  2194                           tblptrl	equ	0xFF6
  2195                           tablat	equ	0xFF5
  2196                           prodh	equ	0xFF4
  2197                           prodl	equ	0xFF3
  2198                           intcon	equ	0xFF2
  2199                           intcon2	equ	0xFF1
  2200                           intcon3	equ	0xFF0
  2201                           postinc0	equ	0xFEE
  2202                           fsr0h	equ	0xFEA
  2203                           fsr0l	equ	0xFE9
  2204                           wreg	equ	0xFE8
  2205                           fsr1h	equ	0xFE2
  2206                           fsr1l	equ	0xFE1
  2207                           bsr	equ	0xFE0
  2208                           fsr2h	equ	0xFDA
  2209                           fsr2l	equ	0xFD9
  2210                           status	equ	0xFD8


Data Sizes:
    Strings     0
    Constant    0
    Data        0
    BSS         8
    Persistent  6
    Stack       0

Auto Spaces:
    Space          Size  Autos    Used
    COMRAM           94     44      58
    BANK0           160      0       0
    BANK1           256      0       0
    BANK2           256      0       0
    BANK3           256      0       0
    BANK4           256      0       0
    BANK5           256      0       0

Pointer List with Targets:

    None.

Critical Paths under _main in COMRAM

    _main->_teclado

Critical Paths under _interrupcionBaixa in COMRAM

    None.

Critical Paths under _interrupcionAlta in COMRAM

    None.

Critical Paths under _main in BANK0

    None.

Critical Paths under _interrupcionBaixa in BANK0

    None.

Critical Paths under _interrupcionAlta in BANK0

    None.

Critical Paths under _main in BANK1

    None.

Critical Paths under _interrupcionBaixa in BANK1

    None.

Critical Paths under _interrupcionAlta in BANK1

    None.

Critical Paths under _main in BANK2

    None.

Critical Paths under _interrupcionBaixa in BANK2

    None.

Critical Paths under _interrupcionAlta in BANK2

    None.

Critical Paths under _main in BANK3

    None.

Critical Paths under _interrupcionBaixa in BANK3

    None.

Critical Paths under _interrupcionAlta in BANK3

    None.

Critical Paths under _main in BANK4

    None.

Critical Paths under _interrupcionBaixa in BANK4

    None.

Critical Paths under _interrupcionAlta in BANK4

    None.

Critical Paths under _main in BANK5

    None.

Critical Paths under _interrupcionBaixa in BANK5

    None.

Critical Paths under _interrupcionAlta in BANK5

    None.

Call Graph Tables:

 ---------------------------------------------------------------------------------
 (Depth) Function   	        Calls       Base Space   Used Autos Params    Refs
 ---------------------------------------------------------------------------------
 (0) _main                                                 5     5      0       0
                                             39 COMRAM     5     5      0
     _inicializaManipuladorMagnetico
                            _teclado
 ---------------------------------------------------------------------------------
 (1) _teclado                                              4     4      0       0
                                             35 COMRAM     4     4      0
 ---------------------------------------------------------------------------------
 (1) _inicializaManipuladorMagnetico                       0     0      0       0
                    _inicializaAN0_I
                    _inicializaAN1_I
               _inicializaAnalogicas
           _inicializaGlobalRB_I_Int
            _inicializaPortD_Teclado
                    _inicializaRB0_I
                    _inicializaRB1_I
                    _inicializaRB2_I
                  _inicializaRB4_5_O
                    _inicializaRC0_O
                  _inicializaRC1_PWM
                  _inicializaRC2_PWM
                    _inicializaRC3_O
                    _inicializaRC4_O
                    _inicializaRC5_O
               _inicializaTimer2_PWM
 ---------------------------------------------------------------------------------
 (2) _inicializaTimer2_PWM                                 0     0      0       0
 ---------------------------------------------------------------------------------
 (2) _inicializaRC5_O                                      0     0      0       0
 ---------------------------------------------------------------------------------
 (2) _inicializaRC4_O                                      0     0      0       0
 ---------------------------------------------------------------------------------
 (2) _inicializaRC3_O                                      0     0      0       0
 ---------------------------------------------------------------------------------
 (2) _inicializaRC2_PWM                                    0     0      0       0
 ---------------------------------------------------------------------------------
 (2) _inicializaRC1_PWM                                    0     0      0       0
 ---------------------------------------------------------------------------------
 (2) _inicializaRC0_O                                      0     0      0       0
 ---------------------------------------------------------------------------------
 (2) _inicializaRB4_5_O                                    0     0      0       0
 ---------------------------------------------------------------------------------
 (2) _inicializaRB2_I                                      0     0      0       0
 ---------------------------------------------------------------------------------
 (2) _inicializaRB1_I                                      0     0      0       0
 ---------------------------------------------------------------------------------
 (2) _inicializaRB0_I                                      0     0      0       0
 ---------------------------------------------------------------------------------
 (2) _inicializaPortD_Teclado                              0     0      0       0
 ---------------------------------------------------------------------------------
 (2) _inicializaGlobalRB_I_Int                             0     0      0       0
 ---------------------------------------------------------------------------------
 (2) _inicializaAnalogicas                                 0     0      0       0
 ---------------------------------------------------------------------------------
 (2) _inicializaAN1_I                                      0     0      0       0
 ---------------------------------------------------------------------------------
 (2) _inicializaAN0_I                                      0     0      0       0
 ---------------------------------------------------------------------------------
 Estimated maximum stack depth 2
 ---------------------------------------------------------------------------------
 (Depth) Function   	        Calls       Base Space   Used Autos Params    Refs
 ---------------------------------------------------------------------------------
 (3) _interrupcionBaixa                                   21    21      0       0
                                             14 COMRAM    21    21      0
 ---------------------------------------------------------------------------------
 Estimated maximum stack depth 3
 ---------------------------------------------------------------------------------
 (Depth) Function   	        Calls       Base Space   Used Autos Params    Refs
 ---------------------------------------------------------------------------------
 (4) _interrupcionAlta                                    14    14      0       0
                                              0 COMRAM    14    14      0
 ---------------------------------------------------------------------------------
 Estimated maximum stack depth 4
 ---------------------------------------------------------------------------------

 Call Graph Graphs:

 _main (ROOT)
   _inicializaManipuladorMagnetico
     _inicializaAN0_I
     _inicializaAN1_I
     _inicializaAnalogicas
     _inicializaGlobalRB_I_Int
     _inicializaPortD_Teclado
     _inicializaRB0_I
     _inicializaRB1_I
     _inicializaRB2_I
     _inicializaRB4_5_O
     _inicializaRC0_O
     _inicializaRC1_PWM
     _inicializaRC2_PWM
     _inicializaRC3_O
     _inicializaRC4_O
     _inicializaRC5_O
     _inicializaTimer2_PWM
   _teclado

 _interrupcionBaixa (ROOT)

 _interrupcionAlta (ROOT)

 Address spaces:
Name               Size   Autos  Total    Cost      Usage
BIGRAM             5FF      0       0      17        0.0%
EEDATA             100      0       0       0        0.0%
BITBANK5           100      0       0      16        0.0%
BANK5              100      0       0      14        0.0%
BITBANK4           100      0       0      12        0.0%
BANK4              100      0       0      13        0.0%
BITBANK3           100      0       0      10        0.0%
BANK3              100      0       0      11        0.0%
BITBANK2           100      0       0       8        0.0%
BANK2              100      0       0       9        0.0%
BITBANK1           100      0       0       6        0.0%
BANK1              100      0       0       7        0.0%
BITBANK0            A0      0       0       4        0.0%
BANK0               A0      0       0       5        0.0%
BITCOMRAM           5E      0       0       0        0.0%
COMRAM              5E     2C      3A       1       61.7%
BITSFR               0      0       0      40        0.0%
SFR                  0      0       0      40        0.0%
STACK                0      0       0       2        0.0%
NULL                 0      0       0       0        0.0%
ABS                  0      0      3A      15        0.0%
DATA                 0      0      3A       3        0.0%
CODE                 0      0       0       0        0.0%


Microchip Technology PIC18 Macro Assembler V1.38 build -256452561 
Symbol Table                                                                                   Sun Feb 28 17:15:03 2021

                       ?_inicializaAN0_I 0001                         ?_inicializaAN1_I 0001  
                       ?_inicializaRB0_I 0001                         ?_inicializaRB1_I 0001  
                       ?_inicializaRB2_I 0001                         ?_inicializaRC0_O 0001  
                       ?_inicializaRC3_O 0001                         ?_inicializaRC4_O 0001  
                       ?_inicializaRC5_O 0001                                       l63 01DE  
                                     l90 02F4                                       l74 023E  
                                     l68 02CA                                       l69 020E  
                                     l86 02E8                                       l79 026E  
                                     l88 02EC                                       l89 02F0  
                      _inicializaRB4_5_O 04C6                        _inicializaRC1_PWM 0498  
                      _inicializaRC2_PWM 0462                                       bsr 000FE0  
                     ?_inicializaRB4_5_O 0001                       ?_inicializaRC1_PWM 0001  
                     ?_inicializaRC2_PWM 0001                                      l910 0262  
                                    l902 024A                                      l920 0286  
                                    l906 0256                                      l930 02A0  
                                    l940 02F8                                      l924 0292  
                                    l916 027A                                      l942 0322  
                                    l934 02E0                                      l936 02E2  
                                    l882 0202                                      l874 01EA  
                                    l892 0226                                      l878 01F6  
                                    l896 0232                                      l888 021A  
                                    u180 0336                                      _PR2 000FCB  
                                    u380 040E                                      u390 0420  
                                    u388 0410                                      u398 0422  
                                    wreg 000FE8                      ??_inicializaRB4_5_O 0024  
                    ??_inicializaRC1_PWM 0024                      ??_inicializaRC2_PWM 0024  
                           __CFG_LVP$OFF 000000                                     l1050 0428  
                                   _LATD 000F8C                                     i1l59 0188  
                                   _TMR2 000FCC                                     _main 0400  
                                   fsr0h 000FEA                                     fsr1h 000FE2  
                                   fsr0l 000FE9                                     fsr2h 000FDA  
                                   fsr1l 000FE1                                     fsr2l 000FD9  
                                   btemp 003B                 __end_of_interrupcionAlta 03B8  
                                   pclat 000FFA         ??_inicializaManipuladorMagnetico 0024  
        ?_inicializaManipuladorMagnetico 0001                                     prodh 000FF4  
                                   prodl 000FF3                                     start 01D0  
                           ___param_bank 000010                __end_of_inicializaRB4_5_O 04D6  
              __end_of_inicializaRC1_PWM 04B0                __end_of_inicializaRC2_PWM 047E  
                                  ?_main 0001                                    _ADRES 000FC3  
                                  _PORTD 000F83                                    _TRISD 000F95  
                        __end_of_teclado 0340                                    tablat 000FF5  
           __end_of_inicializaAnalogicas 0462                                    status 000FD8  
                        __initialization 047E                             __end_of_main 0440  
                                 ??_main 0028                            __activetblptr 000002  
                                 _ADRESH 000FC4                                   _ADRESL 000FC3  
                                 _CCPR1H 000FBF                                   _CCPR2H 000FBC  
                                 _CCPR1L 000FBE                                   _CCPR2L 000FBB  
                                 _ANSELH 000F7F                                   i1l1014 00B2  
                                 i1l1026 00FE                                   i1l1028 0100  
                         __CFG_WDTEN$OFF 000000                   teclado@muestraVariable 0026  
             __size_of_inicializaRB4_5_O 0010               __size_of_inicializaRC1_PWM 0018  
             __size_of_inicializaRC2_PWM 001C                                   _actual 002D  
                                 clear_0 0484                                ??_teclado 0024  
                                 tblptrh 000FF7                                   tblptrl 000FF6  
                                 tblptru 000FF8                               __accesstop 0060  
                __end_of__initialization 048A                          __CFG_PBADEN$OFF 000000  
           __end_of_inicializaTimer2_PWM 04C6                            ___rparam_used 000001  
                         __pcstackCOMRAM 0001         __size_of_inicializaPortD_Teclado 000A  
                   _inicializaAnalogicas 0440                           _ultimaLectura0 0031  
                         _ultimaLectura1 0033                               __pnvCOMRAM 0035  
                      ?_interrupcionAlta 0001                       ??_interrupcionAlta 0001  
                  ?_inicializaAnalogicas 0001   __end_of_inicializaManipuladorMagnetico 0400  
__size_of_inicializaManipuladorMagnetico 0048           _inicializaManipuladorMagnetico 03B8  
               __size_of_inicializaAN0_I 0006                 __size_of_inicializaAN1_I 0006  
               __size_of_inicializaRB0_I 000A                 __size_of_inicializaRB1_I 000A  
               __size_of_inicializaRB2_I 000A                 _inicializaGlobalRB_I_Int 04D6  
               __size_of_inicializaRC0_O 0006                 __size_of_inicializaRC3_O 0006  
               __size_of_inicializaRC4_O 0006                 __size_of_inicializaRC5_O 0006  
                                i1u30_20 0122                                  i1u30_28 0124  
                                i1u32_20 0140                                  i1u33_20 0142  
                                i1u25_25 00BA                                  i1u34_20 0150  
                                i1u34_28 0152                                  i1u36_20 016C  
                                i1u28_20 0112                                  i1u37_20 017E  
                                i1u36_28 016E                                  i1u29_20 0114  
                                i1u37_28 0180                                  __Hparam 0000  
                                __Lparam 0000                                  __pcinit 047E  
                              _ANSELbits 000F7E                                  __ramtop 0600  
                                __ptext0 0400                                  __ptext1 01D4  
                                __ptext2 03B8                                  __ptext3 04B0  
                                __ptext4 050A                                  __ptext5 0510  
                                __ptext6 0516                                  __ptext7 0462  
                                __ptext8 0498                                  __ptext9 051C  
                              _T2CONbits 000FCA                     _inicializaTimer2_PWM 04B0  
                                _teclado 01D4                           __pintcode_body 0340  
                   end_of_initialization 048A                            __Lmediumconst 0000  
                                int_func 0340                  _inicializaPortD_Teclado 0500  
                                postinc0 000FEE                   ??_inicializaAnalogicas 0024  
                              _PORTBbits 000F81                                _PORTCbits 000F82  
                              _PORTDbits 000F83                    ?_inicializaTimer2_PWM 0001  
                              _TRISAbits 000F92                                _TRISBbits 000F93  
                              _TRISCbits 000F94                        ??_inicializaAN0_I 0024  
                      ??_inicializaAN1_I 0024                        ??_inicializaRB0_I 0024  
                      ??_inicializaRB1_I 0024                        ??_inicializaRB2_I 0024  
                      ??_inicializaRC0_O 0024                        ??_inicializaRC3_O 0024  
                      ??_inicializaRC4_O 0024                        ??_inicializaRC5_O 0024  
                            _CCP1CONbits 000FBD                              _CCP2CONbits 000FBA  
                             _turnoTecla 002F                      start_initialization 047E  
              ??_inicializaPortD_Teclado 0024               ??_inicializaGlobalRB_I_Int 0024  
                 ??_inicializaTimer2_PWM 0024                __size_of_interrupcionAlta 03B0  
                            __pbssCOMRAM 002D                        _interrupcionBaixa 0018  
                     ?_interrupcionBaixa 0001                      ??_interrupcionBaixa 000F  
                              __pintcode 0008                              __pintcodelo 0018  
        __end_of_inicializaPortD_Teclado 050A                                 ?_teclado 0001  
              __end_of_interrupcionBaixa 01D0                                 _IOCBbits 000F7D  
                               _LATBbits 000F8A                              _anteriorRB4 0035  
                            _anteriorRB5 0037                                 _IPR1bits 000F9F  
                               _PIE1bits 000F9D                                 _PIR1bits 000F9E  
                               _RCONbits 000FD0                          _inicializaAN0_I 0528  
                        _inicializaAN1_I 0522                               _ADCON0bits 000FC2  
                             _ADCON2bits 000FC0                          _inicializaRB0_I 04F6  
                        _inicializaRB1_I 04EC                          _inicializaRB2_I 04E2  
                        _inicializaRC0_O 051C                          _inicializaRC3_O 0516  
                        _inicializaRC4_O 0510                          _inicializaRC5_O 050A  
                           _teclaPulsada 0039                              _INTCON2bits 000FF1  
                            _INTCON3bits 000FF0                                 __Hrparam 0000  
                               __Lrparam 0000         __end_of_inicializaGlobalRB_I_Int 04E2  
          __size_of_inicializaAnalogicas 0022                         _interrupcionAlta 0008  
             __size_of_interrupcionBaixa 01B8                         __size_of_teclado 016C  
                               __ptext10 04C6                                 __ptext11 04E2  
                               __ptext12 04EC                                 __ptext13 04F6  
                               __ptext14 0500                                 __ptext15 04D6  
                               __ptext16 0440                                 __ptext17 0522  
                               __ptext18 0528                            __size_of_main 0040  
                __end_of_inicializaAN0_I 052E                  __end_of_inicializaAN1_I 0528  
                __end_of_inicializaRB0_I 0500                  __end_of_inicializaRB1_I 04F6  
                __end_of_inicializaRB2_I 04EC                  __end_of_inicializaRC0_O 0522  
                __end_of_inicializaRC3_O 051C                  __end_of_inicializaRC4_O 0516  
                __end_of_inicializaRC5_O 0510                                 int$flags 003B  
                               main@var1 0029                                 main@var2 002B  
                             _INTCONbits 000FF2                                 intlevel1 0000  
                               intlevel2 0000            __size_of_inicializaTimer2_PWM 0016  
      __size_of_inicializaGlobalRB_I_Int 000C                ?_inicializaGlobalRB_I_Int 0001  
               ?_inicializaPortD_Teclado 0001                        __CFG_FOSC$INTIO67 000000  
